
========================================================================

** ELF Header Information

    File Name: .\obj\Power.axf

    Machine class: ELFCLASS32 (32-bit)
    Data encoding: ELFDATA2LSB (Little endian)
    Header version: EV_CURRENT (Current version)
    Operating System ABI: none
    ABI Version: 0
    File Type: ET_EXEC (Executable) (2)
    Machine: EM_ARM (ARM)

    Image Entry point: 0x000015fd
    Flags: EF_ARM_HASENTRY + EF_ARM_ABI_FLOAT_SOFT (0x05000202)

    ARM ELF revision: 5 (ABI version 2)

    Conforms to Soft float procedure-call standard

    Built with
    Component: ARM Compiler 5.06 update 5 (build 528) Tool: armasm [4d35e1]
    Component: ARM Compiler 5.06 update 5 (build 528) Tool: armlink [4d35e2]

    Header size: 52 bytes (0x34)
    Program header entry size: 32 bytes (0x20)
    Section header entry size: 40 bytes (0x28)

    Program header entries: 1
    Section header entries: 16

    Program header offset: 303596 (0x0004a1ec)
    Section header offset: 303628 (0x0004a20c)

    Section header string table index: 15

========================================================================

** Program header #0 (PT_LOAD) [PF_X + PF_W + PF_R + PF_ARM_ENTRY]
    Size : 8168 bytes (7600 bytes in file)
    Virtual address: 0x00000000 (Alignment 8)


========================================================================

** Section #1 'ER_RO' (SHT_PROGBITS) [SHF_ALLOC + SHF_EXECINSTR]
    Size   : 6952 bytes (alignment 4)
    Address: 0x00000000

    $d.realdata
    RESET
    __Vectors
        0x00000000:    200004c0    ...     DCD    536872128
        0x00000004:    000015fd    ....    DCD    5629
        0x00000008:    00001601    ....    DCD    5633
        0x0000000c:    000000d5    ....    DCD    213
        0x00000010:    00000000    ....    DCD    0
        0x00000014:    00000000    ....    DCD    0
        0x00000018:    00000000    ....    DCD    0
        0x0000001c:    00000000    ....    DCD    0
        0x00000020:    00000000    ....    DCD    0
        0x00000024:    00000000    ....    DCD    0
        0x00000028:    00000000    ....    DCD    0
        0x0000002c:    00001605    ....    DCD    5637
        0x00000030:    00000000    ....    DCD    0
        0x00000034:    00000000    ....    DCD    0
        0x00000038:    00001607    ....    DCD    5639
        0x0000003c:    00000aaf    ....    DCD    2735
        0x00000040:    0000160b    ....    DCD    5643
        0x00000044:    0000160b    ....    DCD    5643
        0x00000048:    0000160b    ....    DCD    5643
        0x0000004c:    0000160b    ....    DCD    5643
        0x00000050:    0000160b    ....    DCD    5643
        0x00000054:    0000160b    ....    DCD    5643
        0x00000058:    0000160b    ....    DCD    5643
        0x0000005c:    0000160b    ....    DCD    5643
        0x00000060:    0000083d    =...    DCD    2109
        0x00000064:    000008f9    ....    DCD    2297
        0x00000068:    0000160b    ....    DCD    5643
        0x0000006c:    0000160b    ....    DCD    5643
        0x00000070:    0000160b    ....    DCD    5643
        0x00000074:    0000160b    ....    DCD    5643
        0x00000078:    00000a87    ....    DCD    2695
        0x0000007c:    0000160b    ....    DCD    5643
        0x00000080:    0000160b    ....    DCD    5643
        0x00000084:    0000160b    ....    DCD    5643
        0x00000088:    0000160b    ....    DCD    5643
        0x0000008c:    0000160b    ....    DCD    5643
        0x00000090:    0000160b    ....    DCD    5643
        0x00000094:    0000160b    ....    DCD    5643
        0x00000098:    0000160b    ....    DCD    5643
        0x0000009c:    0000160b    ....    DCD    5643
        0x000000a0:    0000160b    ....    DCD    5643
        0x000000a4:    00000959    Y...    DCD    2393
        0x000000a8:    0000160b    ....    DCD    5643
        0x000000ac:    0000160b    ....    DCD    5643
        0x000000b0:    0000160b    ....    DCD    5643
        0x000000b4:    00000993    ....    DCD    2451
        0x000000b8:    0000160b    ....    DCD    5643
        0x000000bc:    0000160b    ....    DCD    5643
    $t
    .ARM.Collect$$$$00000000
    .ARM.Collect$$$$00000001
    __main
    _main_stk
        0x000000c0:    4803        .H      LDR      r0,__lit__00000000 ; [0xd0] = 0x200004c0
        0x000000c2:    4685        .F      MOV      sp,r0
    .ARM.Collect$$$$00000004
    _main_scatterload
        0x000000c4:    f001fb24    ..$.    BL       __scatterload ; 0x1710
    .ARM.Collect$$$$00000008
    .ARM.Collect$$$$0000000A
    .ARM.Collect$$$$0000000B
    __main_after_scatterload
    _main_clock
    _main_cpp_init
    _main_init
        0x000000c8:    4800        .H      LDR      r0,[pc,#0] ; [0xcc] = 0x5e5
        0x000000ca:    4700        .G      BX       r0
    $d
        0x000000cc:    000005e5    ....    DCD    1509
    .ARM.Collect$$$$00002712
    __lit__00000000
    .ARM.Collect$$$$0000000D
    .ARM.Collect$$$$0000000F
    __rt_final_cpp
    __rt_final_exit
        0x000000d0:    200004c0    ...     DCD    536872128
    $t
    .emb_text
    HardFault_Handler
        0x000000d4:    2004        .       MOVS     r0,#4
        0x000000d6:    4671        qF      MOV      r1,lr
        0x000000d8:    4208        .B      TST      r0,r1
        0x000000da:    d002        ..      BEQ      0xe2 ; HardFault_Handler + 14
        0x000000dc:    f3ef8009    ....    MRS      r0,PSP
        0x000000e0:    e001        ..      B        0xe6 ; HardFault_Handler + 18
        0x000000e2:    f3ef8008    ....    MRS      r0,MSP
        0x000000e6:    4671        qF      MOV      r1,lr
        0x000000e8:    4a00        .J      LDR      r2,[pc,#0] ; [0xec] = 0x151b
        0x000000ea:    4710        .G      BX       r2
    $d
        0x000000ec:    0000151b    ....    DCD    5403
    $t
    .text
    __NVIC_SetPriority
        0x000000f0:    0783        ..      LSLS     r3,r0,#30
        0x000000f2:    22ff        ."      MOVS     r2,#0xff
        0x000000f4:    0edb        ..      LSRS     r3,r3,#27
        0x000000f6:    409a        .@      LSLS     r2,r2,r3
        0x000000f8:    0789        ..      LSLS     r1,r1,#30
        0x000000fa:    0e09        ..      LSRS     r1,r1,#24
        0x000000fc:    4099        .@      LSLS     r1,r1,r3
        0x000000fe:    2800        .(      CMP      r0,#0
        0x00000100:    db08        ..      BLT      0x114 ; __NVIC_SetPriority + 36
        0x00000102:    0883        ..      LSRS     r3,r0,#2
        0x00000104:    48fe        .H      LDR      r0,[pc,#1016] ; [0x500] = 0xe000e400
        0x00000106:    009b        ..      LSLS     r3,r3,#2
        0x00000108:    1818        ..      ADDS     r0,r3,r0
        0x0000010a:    6803        .h      LDR      r3,[r0,#0]
        0x0000010c:    4393        .C      BICS     r3,r3,r2
        0x0000010e:    430b        .C      ORRS     r3,r3,r1
        0x00000110:    6003        .`      STR      r3,[r0,#0]
        0x00000112:    4770        pG      BX       lr
        0x00000114:    0700        ..      LSLS     r0,r0,#28
        0x00000116:    0f00        ..      LSRS     r0,r0,#28
        0x00000118:    3808        .8      SUBS     r0,r0,#8
        0x0000011a:    0883        ..      LSRS     r3,r0,#2
        0x0000011c:    48f9        .H      LDR      r0,[pc,#996] ; [0x504] = 0xe000ed00
        0x0000011e:    009b        ..      LSLS     r3,r3,#2
        0x00000120:    1818        ..      ADDS     r0,r3,r0
        0x00000122:    69c3        .i      LDR      r3,[r0,#0x1c]
        0x00000124:    4393        .C      BICS     r3,r3,r2
        0x00000126:    430b        .C      ORRS     r3,r3,r1
        0x00000128:    61c3        .a      STR      r3,[r0,#0x1c]
        0x0000012a:    4770        pG      BX       lr
    initClk
        0x0000012c:    b5f8        ..      PUSH     {r3-r7,lr}
        0x0000012e:    4cf6        .L      LDR      r4,[pc,#984] ; [0x508] = 0x50000200
        0x00000130:    6820         h      LDR      r0,[r4,#0]
        0x00000132:    2104        .!      MOVS     r1,#4
        0x00000134:    4308        .C      ORRS     r0,r0,r1
        0x00000136:    6020         `      STR      r0,[r4,#0]
        0x00000138:    2010        .       MOVS     r0,#0x10
        0x0000013a:    f000feab    ....    BL       CLK_WaitClockReady ; 0xe94
        0x0000013e:    2100        .!      MOVS     r1,#0
        0x00000140:    2007        .       MOVS     r0,#7
        0x00000142:    f000fe1f    ....    BL       CLK_SetHCLK ; 0xd84
        0x00000146:    2038        8       MOVS     r0,#0x38
        0x00000148:    f000fe4e    ..N.    BL       CLK_SetSysTickClockSrc ; 0xde8
        0x0000014c:    4def        .M      LDR      r5,[pc,#956] ; [0x50c] = 0x260c03e0
        0x0000014e:    2201        ."      MOVS     r2,#1
        0x00000150:    2102        .!      MOVS     r1,#2
        0x00000152:    4628        (F      MOV      r0,r5
        0x00000154:    f000fe22    ..".    BL       CLK_SetModuleClock ; 0xd9c
        0x00000158:    4eed        .N      LDR      r6,[pc,#948] ; [0x510] = 0x2623fe1c
        0x0000015a:    2237        7"      MOVS     r2,#0x37
        0x0000015c:    0492        ..      LSLS     r2,r2,#18
        0x0000015e:    210c        .!      MOVS     r1,#0xc
        0x00000160:    4630        0F      MOV      r0,r6
        0x00000162:    f000fe1b    ....    BL       CLK_SetModuleClock ; 0xd9c
        0x00000166:    4feb        .O      LDR      r7,[pc,#940] ; [0x514] = 0x27cc03f4
        0x00000168:    2201        ."      MOVS     r2,#1
        0x0000016a:    0751        Q.      LSLS     r1,r2,#29
        0x0000016c:    4638        8F      MOV      r0,r7
        0x0000016e:    f000fe15    ....    BL       CLK_SetModuleClock ; 0xd9c
        0x00000172:    2201        ."      MOVS     r2,#1
        0x00000174:    07d1        ..      LSLS     r1,r2,#31
        0x00000176:    48e8        .H      LDR      r0,[pc,#928] ; [0x518] = 0x27ec03f5
        0x00000178:    f000fe10    ....    BL       CLK_SetModuleClock ; 0xd9c
        0x0000017c:    2201        ."      MOVS     r2,#1
        0x0000017e:    2120         !      MOVS     r1,#0x20
        0x00000180:    48e6        .H      LDR      r0,[pc,#920] ; [0x51c] = 0x664c03f6
        0x00000182:    f000fe0b    ....    BL       CLK_SetModuleClock ; 0xd9c
        0x00000186:    2200        ."      MOVS     r2,#0
        0x00000188:    0421        !.      LSLS     r1,r4,#16
        0x0000018a:    48e5        .H      LDR      r0,[pc,#916] ; [0x520] = 0x27803d10
        0x0000018c:    f000fe06    ....    BL       CLK_SetModuleClock ; 0xd9c
        0x00000190:    2201        ."      MOVS     r2,#1
        0x00000192:    0251        Q.      LSLS     r1,r2,#9
        0x00000194:    48e3        .H      LDR      r0,[pc,#908] ; [0x524] = 0x2e8c03e2
        0x00000196:    f000fe01    ....    BL       CLK_SetModuleClock ; 0xd9c
        0x0000019a:    2201        ."      MOVS     r2,#1
        0x0000019c:    0351        Q.      LSLS     r1,r2,#13
        0x0000019e:    48e2        .H      LDR      r0,[pc,#904] ; [0x528] = 0x2ecc03e3
        0x000001a0:    f000fdfc    ....    BL       CLK_SetModuleClock ; 0xd9c
        0x000001a4:    6960        `i      LDR      r0,[r4,#0x14]
        0x000001a6:    2110        .!      MOVS     r1,#0x10
        0x000001a8:    4308        .C      ORRS     r0,r0,r1
        0x000001aa:    6160        `a      STR      r0,[r4,#0x14]
        0x000001ac:    4628        (F      MOV      r0,r5
        0x000001ae:    f000fe4b    ..K.    BL       CLK_EnableModuleClock ; 0xe48
        0x000001b2:    48dc        .H      LDR      r0,[pc,#880] ; [0x524] = 0x2e8c03e2
        0x000001b4:    f000fe48    ..H.    BL       CLK_EnableModuleClock ; 0xe48
        0x000001b8:    48db        .H      LDR      r0,[pc,#876] ; [0x528] = 0x2ecc03e3
        0x000001ba:    f000fe45    ..E.    BL       CLK_EnableModuleClock ; 0xe48
        0x000001be:    48db        .H      LDR      r0,[pc,#876] ; [0x52c] = 0x224c03ec
        0x000001c0:    f000fe42    ..B.    BL       CLK_EnableModuleClock ; 0xe48
        0x000001c4:    48d6        .H      LDR      r0,[pc,#856] ; [0x520] = 0x27803d10
        0x000001c6:    f000fe3f    ..?.    BL       CLK_EnableModuleClock ; 0xe48
        0x000001ca:    4638        8F      MOV      r0,r7
        0x000001cc:    f000fe3c    ..<.    BL       CLK_EnableModuleClock ; 0xe48
        0x000001d0:    48d1        .H      LDR      r0,[pc,#836] ; [0x518] = 0x27ec03f5
        0x000001d2:    f000fe39    ..9.    BL       CLK_EnableModuleClock ; 0xe48
        0x000001d6:    48d1        .H      LDR      r0,[pc,#836] ; [0x51c] = 0x664c03f6
        0x000001d8:    f000fe36    ..6.    BL       CLK_EnableModuleClock ; 0xe48
        0x000001dc:    4630        0F      MOV      r0,r6
        0x000001de:    f000fe33    ..3.    BL       CLK_EnableModuleClock ; 0xe48
        0x000001e2:    48d3        .H      LDR      r0,[pc,#844] ; [0x530] = 0x61fc03fe
        0x000001e4:    f000fe30    ..0.    BL       CLK_EnableModuleClock ; 0xe48
        0x000001e8:    bdf8        ..      POP      {r3-r7,pc}
    initIRQ
        0x000001ea:    b510        ..      PUSH     {r4,lr}
        0x000001ec:    2008        .       MOVS     r0,#8
        0x000001ee:    f000fa1b    ....    BL       __NVIC_EnableIRQ ; 0x628
        0x000001f2:    2009        .       MOVS     r0,#9
        0x000001f4:    f000fa18    ....    BL       __NVIC_EnableIRQ ; 0x628
        0x000001f8:    200e        .       MOVS     r0,#0xe
        0x000001fa:    f000fa15    ....    BL       __NVIC_EnableIRQ ; 0x628
        0x000001fe:    2019        .       MOVS     r0,#0x19
        0x00000200:    f000fa12    ....    BL       __NVIC_EnableIRQ ; 0x628
        0x00000204:    2002        .       MOVS     r0,#2
        0x00000206:    f000fa0f    ....    BL       __NVIC_EnableIRQ ; 0x628
        0x0000020a:    201d        .       MOVS     r0,#0x1d
        0x0000020c:    f000fa0c    ....    BL       __NVIC_EnableIRQ ; 0x628
        0x00000210:    2101        .!      MOVS     r1,#1
        0x00000212:    2008        .       MOVS     r0,#8
        0x00000214:    f7ffff6c    ..l.    BL       __NVIC_SetPriority ; 0xf0
        0x00000218:    2101        .!      MOVS     r1,#1
        0x0000021a:    2009        .       MOVS     r0,#9
        0x0000021c:    f7ffff68    ..h.    BL       __NVIC_SetPriority ; 0xf0
        0x00000220:    2103        .!      MOVS     r1,#3
        0x00000222:    200e        .       MOVS     r0,#0xe
        0x00000224:    f7ffff64    ..d.    BL       __NVIC_SetPriority ; 0xf0
        0x00000228:    2102        .!      MOVS     r1,#2
        0x0000022a:    2019        .       MOVS     r0,#0x19
        0x0000022c:    f7ffff60    ..`.    BL       __NVIC_SetPriority ; 0xf0
        0x00000230:    2100        .!      MOVS     r1,#0
        0x00000232:    2002        .       MOVS     r0,#2
        0x00000234:    f7ffff5c    ..\.    BL       __NVIC_SetPriority ; 0xf0
        0x00000238:    2103        .!      MOVS     r1,#3
        0x0000023a:    201d        .       MOVS     r0,#0x1d
        0x0000023c:    f7ffff58    ..X.    BL       __NVIC_SetPriority ; 0xf0
        0x00000240:    2201        ."      MOVS     r2,#1
        0x00000242:    2104        .!      MOVS     r1,#4
        0x00000244:    48bb        .H      LDR      r0,[pc,#748] ; [0x534] = 0x500040c0
        0x00000246:    f000fe57    ..W.    BL       GPIO_EnableInt ; 0xef8
        0x0000024a:    bd10        ..      POP      {r4,pc}
    initGPIO
        0x0000024c:    b5f8        ..      PUSH     {r3-r7,lr}
        0x0000024e:    4cb9        .L      LDR      r4,[pc,#740] ; [0x534] = 0x500040c0
        0x00000250:    2201        ."      MOVS     r2,#1
        0x00000252:    3480        .4      ADDS     r4,r4,#0x80
        0x00000254:    2110        .!      MOVS     r1,#0x10
        0x00000256:    4620         F      MOV      r0,r4
        0x00000258:    f000fe3a    ..:.    BL       GPIO_SetMode ; 0xed0
        0x0000025c:    4db5        .M      LDR      r5,[pc,#724] ; [0x534] = 0x500040c0
        0x0000025e:    2201        ."      MOVS     r2,#1
        0x00000260:    4611        .F      MOV      r1,r2
        0x00000262:    4628        (F      MOV      r0,r5
        0x00000264:    f000fe34    ..4.    BL       GPIO_SetMode ; 0xed0
        0x00000268:    48b3        .H      LDR      r0,[pc,#716] ; [0x538] = 0x50004240
        0x0000026a:    2700        .'      MOVS     r7,#0
        0x0000026c:    6207        .b      STR      r7,[r0,#0x20]
        0x0000026e:    463a        :F      MOV      r2,r7
        0x00000270:    2104        .!      MOVS     r1,#4
        0x00000272:    4628        (F      MOV      r0,r5
        0x00000274:    f000fe2c    ..,.    BL       GPIO_SetMode ; 0xed0
        0x00000278:    48ae        .H      LDR      r0,[pc,#696] ; [0x534] = 0x500040c0
        0x0000027a:    2201        ."      MOVS     r2,#1
        0x0000027c:    217c        |!      MOVS     r1,#0x7c
        0x0000027e:    3840        @8      SUBS     r0,r0,#0x40
        0x00000280:    f000fe26    ..&.    BL       GPIO_SetMode ; 0xed0
        0x00000284:    4eab        .N      LDR      r6,[pc,#684] ; [0x534] = 0x500040c0
        0x00000286:    2201        ."      MOVS     r2,#1
        0x00000288:    3ec0        .>      SUBS     r6,r6,#0xc0
        0x0000028a:    2110        .!      MOVS     r1,#0x10
        0x0000028c:    4630        0F      MOV      r0,r6
        0x0000028e:    f000fe1f    ....    BL       GPIO_SetMode ; 0xed0
        0x00000292:    2200        ."      MOVS     r2,#0
        0x00000294:    21a2        .!      MOVS     r1,#0xa2
        0x00000296:    4630        0F      MOV      r0,r6
        0x00000298:    f000fe1a    ....    BL       GPIO_SetMode ; 0xed0
        0x0000029c:    2201        ."      MOVS     r2,#1
        0x0000029e:    2140        @!      MOVS     r1,#0x40
        0x000002a0:    4630        0F      MOV      r0,r6
        0x000002a2:    f000fe15    ....    BL       GPIO_SetMode ; 0xed0
        0x000002a6:    2201        ."      MOVS     r2,#1
        0x000002a8:    4611        .F      MOV      r1,r2
        0x000002aa:    4630        0F      MOV      r0,r6
        0x000002ac:    f000fe10    ....    BL       GPIO_SetMode ; 0xed0
        0x000002b0:    4ea0        .N      LDR      r6,[pc,#640] ; [0x534] = 0x500040c0
        0x000002b2:    2200        ."      MOVS     r2,#0
        0x000002b4:    3e80        .>      SUBS     r6,r6,#0x80
        0x000002b6:    2104        .!      MOVS     r1,#4
        0x000002b8:    4630        0F      MOV      r0,r6
        0x000002ba:    f000fe09    ....    BL       GPIO_SetMode ; 0xed0
        0x000002be:    2201        ."      MOVS     r2,#1
        0x000002c0:    2140        @!      MOVS     r1,#0x40
        0x000002c2:    4628        (F      MOV      r0,r5
        0x000002c4:    f000fe04    ....    BL       GPIO_SetMode ; 0xed0
        0x000002c8:    2201        ."      MOVS     r2,#1
        0x000002ca:    4611        .F      MOV      r1,r2
        0x000002cc:    4620         F      MOV      r0,r4
        0x000002ce:    f000fdff    ....    BL       GPIO_SetMode ; 0xed0
        0x000002d2:    4899        .H      LDR      r0,[pc,#612] ; [0x538] = 0x50004240
        0x000002d4:    3040        @0      ADDS     r0,r0,#0x40
        0x000002d6:    6207        .b      STR      r7,[r0,#0x20]
        0x000002d8:    6860        `h      LDR      r0,[r4,#4]
        0x000002da:    6060        ``      STR      r0,[r4,#4]
        0x000002dc:    2200        ."      MOVS     r2,#0
        0x000002de:    2108        .!      MOVS     r1,#8
        0x000002e0:    4620         F      MOV      r0,r4
        0x000002e2:    f000fdf5    ....    BL       GPIO_SetMode ; 0xed0
        0x000002e6:    6868        hh      LDR      r0,[r5,#4]
        0x000002e8:    6068        h`      STR      r0,[r5,#4]
        0x000002ea:    2200        ."      MOVS     r2,#0
        0x000002ec:    2102        .!      MOVS     r1,#2
        0x000002ee:    4628        (F      MOV      r0,r5
        0x000002f0:    f000fdee    ....    BL       GPIO_SetMode ; 0xed0
        0x000002f4:    6870        ph      LDR      r0,[r6,#4]
        0x000002f6:    6070        p`      STR      r0,[r6,#4]
        0x000002f8:    2200        ."      MOVS     r2,#0
        0x000002fa:    2139        9!      MOVS     r1,#0x39
        0x000002fc:    4630        0F      MOV      r0,r6
        0x000002fe:    f000fde7    ....    BL       GPIO_SetMode ; 0xed0
        0x00000302:    05a0        ..      LSLS     r0,r4,#22
        0x00000304:    6b01        .k      LDR      r1,[r0,#0x30]
        0x00000306:    4a8d        .J      LDR      r2,[pc,#564] ; [0x53c] = 0xfefffefe
        0x00000308:    4011        .@      ANDS     r1,r1,r2
        0x0000030a:    6301        .c      STR      r1,[r0,#0x30]
        0x0000030c:    6b01        .k      LDR      r1,[r0,#0x30]
        0x0000030e:    23ff        .#      MOVS     r3,#0xff
        0x00000310:    3302        .3      ADDS     r3,#2
        0x00000312:    4319        .C      ORRS     r1,r1,r3
        0x00000314:    6301        .c      STR      r1,[r0,#0x30]
        0x00000316:    6b41        Ak      LDR      r1,[r0,#0x34]
        0x00000318:    4a89        .J      LDR      r2,[pc,#548] ; [0x540] = 0xfffffbfb
        0x0000031a:    4011        .@      ANDS     r1,r1,r2
        0x0000031c:    6341        Ac      STR      r1,[r0,#0x34]
        0x0000031e:    6b41        Ak      LDR      r1,[r0,#0x34]
        0x00000320:    2201        ."      MOVS     r2,#1
        0x00000322:    0292        ..      LSLS     r2,r2,#10
        0x00000324:    4311        .C      ORRS     r1,r1,r2
        0x00000326:    6341        Ac      STR      r1,[r0,#0x34]
        0x00000328:    6b01        .k      LDR      r1,[r0,#0x30]
        0x0000032a:    4a86        .J      LDR      r2,[pc,#536] ; [0x544] = 0xe002
        0x0000032c:    4311        .C      ORRS     r1,r1,r2
        0x0000032e:    6301        .c      STR      r1,[r0,#0x30]
        0x00000330:    4985        .I      LDR      r1,[pc,#532] ; [0x548] = 0x50000040
        0x00000332:    684a        Jh      LDR      r2,[r1,#4]
        0x00000334:    4c85        .L      LDR      r4,[pc,#532] ; [0x54c] = 0xfffff7f7
        0x00000336:    4022        "@      ANDS     r2,r2,r4
        0x00000338:    604a        J`      STR      r2,[r1,#4]
        0x0000033a:    684a        Jh      LDR      r2,[r1,#4]
        0x0000033c:    2408        .$      MOVS     r4,#8
        0x0000033e:    4322        "C      ORRS     r2,r2,r4
        0x00000340:    604a        J`      STR      r2,[r1,#4]
        0x00000342:    6bc2        .k      LDR      r2,[r0,#0x3c]
        0x00000344:    4c82        .L      LDR      r4,[pc,#520] ; [0x550] = 0xfffffdfd
        0x00000346:    4022        "@      ANDS     r2,r2,r4
        0x00000348:    63c2        .c      STR      r2,[r0,#0x3c]
        0x0000034a:    6bc2        .k      LDR      r2,[r0,#0x3c]
        0x0000034c:    005c        \.      LSLS     r4,r3,#1
        0x0000034e:    4322        "C      ORRS     r2,r2,r4
        0x00000350:    63c2        .c      STR      r2,[r0,#0x3c]
        0x00000352:    6bc2        .k      LDR      r2,[r0,#0x3c]
        0x00000354:    4c7f        .L      LDR      r4,[pc,#508] ; [0x554] = 0xffffbfbf
        0x00000356:    4022        "@      ANDS     r2,r2,r4
        0x00000358:    63c2        .c      STR      r2,[r0,#0x3c]
        0x0000035a:    6bc2        .k      LDR      r2,[r0,#0x3c]
        0x0000035c:    019c        ..      LSLS     r4,r3,#6
        0x0000035e:    4322        "C      ORRS     r2,r2,r4
        0x00000360:    63c2        .c      STR      r2,[r0,#0x3c]
        0x00000362:    684a        Jh      LDR      r2,[r1,#4]
        0x00000364:    439a        .C      BICS     r2,r2,r3
        0x00000366:    604a        J`      STR      r2,[r1,#4]
        0x00000368:    684a        Jh      LDR      r2,[r1,#4]
        0x0000036a:    604a        J`      STR      r2,[r1,#4]
        0x0000036c:    6b41        Ak      LDR      r1,[r0,#0x34]
        0x0000036e:    4b7a        zK      LDR      r3,[pc,#488] ; [0x558] = 0xffffefef
        0x00000370:    4019        .@      ANDS     r1,r1,r3
        0x00000372:    6341        Ac      STR      r1,[r0,#0x34]
        0x00000374:    6b42        Bk      LDR      r2,[r0,#0x34]
        0x00000376:    10a1        ..      ASRS     r1,r4,#2
        0x00000378:    430a        .C      ORRS     r2,r2,r1
        0x0000037a:    6342        Bc      STR      r2,[r0,#0x34]
        0x0000037c:    6b82        .k      LDR      r2,[r0,#0x38]
        0x0000037e:    4c77        wL      LDR      r4,[pc,#476] ; [0x55c] = 0xffff8383
        0x00000380:    4022        "@      ANDS     r2,r2,r4
        0x00000382:    6382        .c      STR      r2,[r0,#0x38]
        0x00000384:    221f        ."      MOVS     r2,#0x1f
        0x00000386:    0292        ..      LSLS     r2,r2,#10
        0x00000388:    6382        .c      STR      r2,[r0,#0x38]
        0x0000038a:    6b02        .k      LDR      r2,[r0,#0x30]
        0x0000038c:    401a        .@      ANDS     r2,r2,r3
        0x0000038e:    6302        .c      STR      r2,[r0,#0x30]
        0x00000390:    6b02        .k      LDR      r2,[r0,#0x30]
        0x00000392:    430a        .C      ORRS     r2,r2,r1
        0x00000394:    6302        .c      STR      r2,[r0,#0x30]
        0x00000396:    6bc1        .k      LDR      r1,[r0,#0x3c]
        0x00000398:    4a71        qJ      LDR      r2,[pc,#452] ; [0x560] = 0xfefffbfb
        0x0000039a:    4011        .@      ANDS     r1,r1,r2
        0x0000039c:    63c1        .c      STR      r1,[r0,#0x3c]
        0x0000039e:    6bc1        .k      LDR      r1,[r0,#0x3c]
        0x000003a0:    2204        ."      MOVS     r2,#4
        0x000003a2:    4311        .C      ORRS     r1,r1,r2
        0x000003a4:    63c1        .c      STR      r1,[r0,#0x3c]
        0x000003a6:    bdf8        ..      POP      {r3-r7,pc}
    configTIM
        0x000003a8:    486f        oH      LDR      r0,[pc,#444] ; [0x568] = 0x40010000
        0x000003aa:    496e        nI      LDR      r1,[pc,#440] ; [0x564] = 0xc03000a
        0x000003ac:    6001        .`      STR      r1,[r0,#0]
        0x000003ae:    496f        oI      LDR      r1,[pc,#444] ; [0x56c] = 0x1c01000a
        0x000003b0:    6201        .b      STR      r1,[r0,#0x20]
        0x000003b2:    4770        pG      BX       lr
    configADC
        0x000003b4:    b510        ..      PUSH     {r4,lr}
        0x000003b6:    4c6e        nL      LDR      r4,[pc,#440] ; [0x570] = 0x400e0000
        0x000003b8:    2205        ."      MOVS     r2,#5
        0x000003ba:    2100        .!      MOVS     r1,#0
        0x000003bc:    4620         F      MOV      r0,r4
        0x000003be:    f000fc6f    ..o.    BL       ADC_SetExtraSampleTime ; 0xca0
        0x000003c2:    6a20         j      LDR      r0,[r4,#0x20]
        0x000003c4:    2101        .!      MOVS     r1,#1
        0x000003c6:    4308        .C      ORRS     r0,r0,r1
        0x000003c8:    6220         b      STR      r0,[r4,#0x20]
        0x000003ca:    486a        jH      LDR      r0,[pc,#424] ; [0x574] = 0x440b05
        0x000003cc:    62a0        .b      STR      r0,[r4,#0x28]
        0x000003ce:    486a        jH      LDR      r0,[pc,#424] ; [0x578] = 0x15c0f39
        0x000003d0:    62e0        .b      STR      r0,[r4,#0x2c]
        0x000003d2:    4620         F      MOV      r0,r4
        0x000003d4:    f000fc6c    ..l.    BL       ADC_EnableInt ; 0xcb0
        0x000003d8:    2102        .!      MOVS     r1,#2
        0x000003da:    4620         F      MOV      r0,r4
        0x000003dc:    f000fc68    ..h.    BL       ADC_EnableInt ; 0xcb0
        0x000003e0:    2104        .!      MOVS     r1,#4
        0x000003e2:    4620         F      MOV      r0,r4
        0x000003e4:    f000fc64    ..d.    BL       ADC_EnableInt ; 0xcb0
        0x000003e8:    6a60        `j      LDR      r0,[r4,#0x24]
        0x000003ea:    0a00        ..      LSRS     r0,r0,#8
        0x000003ec:    0200        ..      LSLS     r0,r0,#8
        0x000003ee:    3080        .0      ADDS     r0,r0,#0x80
        0x000003f0:    6260        `b      STR      r0,[r4,#0x24]
        0x000003f2:    6a20         j      LDR      r0,[r4,#0x20]
        0x000003f4:    2101        .!      MOVS     r1,#1
        0x000003f6:    02c9        ..      LSLS     r1,r1,#11
        0x000003f8:    4308        .C      ORRS     r0,r0,r1
        0x000003fa:    6220         b      STR      r0,[r4,#0x20]
        0x000003fc:    bd10        ..      POP      {r4,pc}
    configSPI
        0x000003fe:    b538        8.      PUSH     {r3-r5,lr}
        0x00000400:    4c5e        ^L      LDR      r4,[pc,#376] ; [0x57c] = 0x40030000
        0x00000402:    4620         F      MOV      r0,r4
        0x00000404:    f000ff46    ..F.    BL       SPI_Close ; 0x1294
        0x00000408:    2000        .       MOVS     r0,#0
        0x0000040a:    2204        ."      MOVS     r2,#4
        0x0000040c:    9000        ..      STR      r0,[sp,#0]
        0x0000040e:    2310        .#      MOVS     r3,#0x10
        0x00000410:    0411        ..      LSLS     r1,r2,#16
        0x00000412:    4620         F      MOV      r0,r4
        0x00000414:    f000ff12    ....    BL       SPI_Open ; 0x123c
        0x00000418:    6820         h      LDR      r0,[r4,#0]
        0x0000041a:    1521        !.      ASRS     r1,r4,#20
        0x0000041c:    4388        .C      BICS     r0,r0,r1
        0x0000041e:    6020         `      STR      r0,[r4,#0]
        0x00000420:    68a0        .h      LDR      r0,[r4,#8]
        0x00000422:    2110        .!      MOVS     r1,#0x10
        0x00000424:    4308        .C      ORRS     r0,r0,r1
        0x00000426:    60a0        .`      STR      r0,[r4,#8]
        0x00000428:    68a0        .h      LDR      r0,[r4,#8]
        0x0000042a:    2104        .!      MOVS     r1,#4
        0x0000042c:    4388        .C      BICS     r0,r0,r1
        0x0000042e:    60a0        .`      STR      r0,[r4,#8]
        0x00000430:    2101        .!      MOVS     r1,#1
        0x00000432:    4620         F      MOV      r0,r4
        0x00000434:    f000ff95    ....    BL       SPI_EnableInt ; 0x1362
        0x00000438:    6820         h      LDR      r0,[r4,#0]
        0x0000043a:    2101        .!      MOVS     r1,#1
        0x0000043c:    4308        .C      ORRS     r0,r0,r1
        0x0000043e:    6020         `      STR      r0,[r4,#0]
        0x00000440:    bd38        8.      POP      {r3-r5,pc}
    initPWM
        0x00000442:    b570        p.      PUSH     {r4-r6,lr}
        0x00000444:    4c4e        NL      LDR      r4,[pc,#312] ; [0x580] = 0x40040000
        0x00000446:    213f        ?!      MOVS     r1,#0x3f
        0x00000448:    4620         F      MOV      r0,r4
        0x0000044a:    f000fdf7    ....    BL       PWM_Stop ; 0x103c
        0x0000044e:    6820         h      LDR      r0,[r4,#0]
        0x00000450:    0a00        ..      LSRS     r0,r0,#8
        0x00000452:    0200        ..      LSLS     r0,r0,#8
        0x00000454:    1c40        @.      ADDS     r0,r0,#1
        0x00000456:    6020         `      STR      r0,[r4,#0]
        0x00000458:    6820         h      LDR      r0,[r4,#0]
        0x0000045a:    21ff        .!      MOVS     r1,#0xff
        0x0000045c:    0209        ..      LSLS     r1,r1,#8
        0x0000045e:    4388        .C      BICS     r0,r0,r1
        0x00000460:    30ff        .0      ADDS     r0,r0,#0xff
        0x00000462:    3001        .0      ADDS     r0,#1
        0x00000464:    6020         `      STR      r0,[r4,#0]
        0x00000466:    6820         h      LDR      r0,[r4,#0]
        0x00000468:    0209        ..      LSLS     r1,r1,#8
        0x0000046a:    4388        .C      BICS     r0,r0,r1
        0x0000046c:    2101        .!      MOVS     r1,#1
        0x0000046e:    0409        ..      LSLS     r1,r1,#16
        0x00000470:    1840        @.      ADDS     r0,r0,r1
        0x00000472:    6020         `      STR      r0,[r4,#0]
        0x00000474:    6860        `h      LDR      r0,[r4,#4]
        0x00000476:    08c0        ..      LSRS     r0,r0,#3
        0x00000478:    00c0        ..      LSLS     r0,r0,#3
        0x0000047a:    1d00        ..      ADDS     r0,r0,#4
        0x0000047c:    6060        ``      STR      r0,[r4,#4]
        0x0000047e:    6860        `h      LDR      r0,[r4,#4]
        0x00000480:    2170        p!      MOVS     r1,#0x70
        0x00000482:    4388        .C      BICS     r0,r0,r1
        0x00000484:    3040        @0      ADDS     r0,r0,#0x40
        0x00000486:    6060        ``      STR      r0,[r4,#4]
        0x00000488:    6860        `h      LDR      r0,[r4,#4]
        0x0000048a:    0109        ..      LSLS     r1,r1,#4
        0x0000048c:    4388        .C      BICS     r0,r0,r1
        0x0000048e:    1521        !.      ASRS     r1,r4,#20
        0x00000490:    1840        @.      ADDS     r0,r0,r1
        0x00000492:    6060        ``      STR      r0,[r4,#4]
        0x00000494:    6860        `h      LDR      r0,[r4,#4]
        0x00000496:    2107        .!      MOVS     r1,#7
        0x00000498:    0309        ..      LSLS     r1,r1,#12
        0x0000049a:    4388        .C      BICS     r0,r0,r1
        0x0000049c:    2101        .!      MOVS     r1,#1
        0x0000049e:    0389        ..      LSLS     r1,r1,#14
        0x000004a0:    1840        @.      ADDS     r0,r0,r1
        0x000004a2:    6060        ``      STR      r0,[r4,#4]
        0x000004a4:    6860        `h      LDR      r0,[r4,#4]
        0x000004a6:    2107        .!      MOVS     r1,#7
        0x000004a8:    0409        ..      LSLS     r1,r1,#16
        0x000004aa:    4388        .C      BICS     r0,r0,r1
        0x000004ac:    2101        .!      MOVS     r1,#1
        0x000004ae:    0489        ..      LSLS     r1,r1,#18
        0x000004b0:    1840        @.      ADDS     r0,r0,r1
        0x000004b2:    6060        ``      STR      r0,[r4,#4]
        0x000004b4:    6860        `h      LDR      r0,[r4,#4]
        0x000004b6:    2107        .!      MOVS     r1,#7
        0x000004b8:    0509        ..      LSLS     r1,r1,#20
        0x000004ba:    4388        .C      BICS     r0,r0,r1
        0x000004bc:    0121        !.      LSLS     r1,r4,#4
        0x000004be:    1840        @.      ADDS     r0,r0,r1
        0x000004c0:    6060        ``      STR      r0,[r4,#4]
        0x000004c2:    4830        0H      LDR      r0,[pc,#192] ; [0x584] = 0x8dddddf
        0x000004c4:    60a0        .`      STR      r0,[r4,#8]
        0x000004c6:    2500        .%      MOVS     r5,#0
        0x000004c8:    6265        eb      STR      r5,[r4,#0x24]
        0x000004ca:    62a5        .b      STR      r5,[r4,#0x28]
        0x000004cc:    62e5        .b      STR      r5,[r4,#0x2c]
        0x000004ce:    6325        %c      STR      r5,[r4,#0x30]
        0x000004d0:    6365        ec      STR      r5,[r4,#0x34]
        0x000004d2:    63a5        .c      STR      r5,[r4,#0x38]
        0x000004d4:    482c        ,H      LDR      r0,[pc,#176] ; [0x588] = 0x373
        0x000004d6:    60e0        .`      STR      r0,[r4,#0xc]
        0x000004d8:    6120         a      STR      r0,[r4,#0x10]
        0x000004da:    6160        `a      STR      r0,[r4,#0x14]
        0x000004dc:    61a0        .a      STR      r0,[r4,#0x18]
        0x000004de:    61e0        .a      STR      r0,[r4,#0x1c]
        0x000004e0:    6220         b      STR      r0,[r4,#0x20]
        0x000004e2:    213f        ?!      MOVS     r1,#0x3f
        0x000004e4:    4620         F      MOV      r0,r4
        0x000004e6:    f000fe1c    ....    BL       PWM_EnableOutput ; 0x1122
        0x000004ea:    4825        %H      LDR      r0,[pc,#148] ; [0x580] = 0x40040000
        0x000004ec:    3040        @0      ADDS     r0,r0,#0x40
        0x000004ee:    6145        Ea      STR      r5,[r0,#0x14]
        0x000004f0:    f001f930    ..0.    BL       BLDC_stopMotor ; 0x1754
        0x000004f4:    4922        "I      LDR      r1,[pc,#136] ; [0x580] = 0x40040000
        0x000004f6:    15a0        ..      ASRS     r0,r4,#22
        0x000004f8:    3180        .1      ADDS     r1,r1,#0x80
        0x000004fa:    6008        .`      STR      r0,[r1,#0]
        0x000004fc:    bd70        p.      POP      {r4-r6,pc}
    $d
        0x000004fe:    0000        ..      DCW    0
        0x00000500:    e000e400    ....    DCD    3758154752
        0x00000504:    e000ed00    ....    DCD    3758157056
        0x00000508:    50000200    ...P    DCD    1342177792
        0x0000050c:    260c03e0    ...&    DCD    638321632
        0x00000510:    2623fe1c    ..#&    DCD    639893020
        0x00000514:    27cc03f4    ...'    DCD    667681780
        0x00000518:    27ec03f5    ...'    DCD    669778933
        0x0000051c:    664c03f6    ..Lf    DCD    1716257782
        0x00000520:    27803d10    .=.'    DCD    662715664
        0x00000524:    2e8c03e2    ....    DCD    780927970
        0x00000528:    2ecc03e3    ....    DCD    785122275
        0x0000052c:    224c03ec    ..L"    DCD    575407084
        0x00000530:    61fc03fe    ...a    DCD    1643906046
        0x00000534:    500040c0    .@.P    DCD    1342193856
        0x00000538:    50004240    @B.P    DCD    1342194240
        0x0000053c:    fefffefe    ....    DCD    4278189822
        0x00000540:    fffffbfb    ....    DCD    4294966267
        0x00000544:    0000e002    ....    DCD    57346
        0x00000548:    50000040    @..P    DCD    1342177344
        0x0000054c:    fffff7f7    ....    DCD    4294965239
        0x00000550:    fffffdfd    ....    DCD    4294966781
        0x00000554:    ffffbfbf    ....    DCD    4294950847
        0x00000558:    ffffefef    ....    DCD    4294963183
        0x0000055c:    ffff8383    ....    DCD    4294935427
        0x00000560:    fefffbfb    ....    DCD    4278189051
        0x00000564:    0c03000a    ....    DCD    201523210
        0x00000568:    40010000    ...@    DCD    1073807360
        0x0000056c:    1c01000a    ....    DCD    469827594
        0x00000570:    400e0000    ...@    DCD    1074659328
        0x00000574:    00440b05    ..D.    DCD    4459269
        0x00000578:    015c0f39    9.\.    DCD    22810425
        0x0000057c:    40030000    ...@    DCD    1073938432
        0x00000580:    40040000    ...@    DCD    1074003968
        0x00000584:    08dddddf    ....    DCD    148757983
        0x00000588:    00000373    s...    DCD    883
    $t
    initSys
        0x0000058c:    b510        ..      PUSH     {r4,lr}
        0x0000058e:    f000ff54    ..T.    BL       SYS_UnlockReg ; 0x143a
        0x00000592:    f7fffdcb    ....    BL       initClk ; 0x12c
        0x00000596:    f001f83b    ..;.    BL       SystemCoreClockUpdate ; 0x1610
        0x0000059a:    4c29        )L      LDR      r4,[pc,#164] ; [0x640] = 0xe000e000
        0x0000059c:    4827        'H      LDR      r0,[pc,#156] ; [0x63c] = 0x1affe
        0x0000059e:    6160        `a      STR      r0,[r4,#0x14]
        0x000005a0:    2103        .!      MOVS     r1,#3
        0x000005a2:    1f08        ..      SUBS     r0,r1,#4
        0x000005a4:    f7fffda4    ....    BL       __NVIC_SetPriority ; 0xf0
        0x000005a8:    2000        .       MOVS     r0,#0
        0x000005aa:    61a0        .a      STR      r0,[r4,#0x18]
        0x000005ac:    2007        .       MOVS     r0,#7
        0x000005ae:    6120         a      STR      r0,[r4,#0x10]
        0x000005b0:    f7ffff47    ..G.    BL       initPWM ; 0x442
        0x000005b4:    f7fffe4a    ..J.    BL       initGPIO ; 0x24c
        0x000005b8:    f7fffefc    ....    BL       configADC ; 0x3b4
        0x000005bc:    f7fffef4    ....    BL       configTIM ; 0x3a8
        0x000005c0:    f7ffff1d    ....    BL       configSPI ; 0x3fe
        0x000005c4:    f7fffe11    ....    BL       initIRQ ; 0x1ea
        0x000005c8:    f000ff33    ..3.    BL       SYS_LockReg ; 0x1432
        0x000005cc:    bd10        ..      POP      {r4,pc}
    initEnv
        0x000005ce:    481d        .H      LDR      r0,[pc,#116] ; [0x644] = 0x20000288
        0x000005d0:    2100        .!      MOVS     r1,#0
        0x000005d2:    62c1        .b      STR      r1,[r0,#0x2c]
        0x000005d4:    6301        .c      STR      r1,[r0,#0x30]
        0x000005d6:    4a1c        .J      LDR      r2,[pc,#112] ; [0x648] = 0x20000024
        0x000005d8:    6011        .`      STR      r1,[r2,#0]
        0x000005da:    8881        ..      LDRH     r1,[r0,#4]
        0x000005dc:    2210        ."      MOVS     r2,#0x10
        0x000005de:    4391        .C      BICS     r1,r1,r2
        0x000005e0:    8081        ..      STRH     r1,[r0,#4]
        0x000005e2:    4770        pG      BX       lr
    main
        0x000005e4:    f7ffffd2    ....    BL       initSys ; 0x58c
        0x000005e8:    f7fffff1    ....    BL       initEnv ; 0x5ce
        0x000005ec:    f000faf0    ....    BL       PTC_checkMotor ; 0xbd0
        0x000005f0:    4916        .I      LDR      r1,[pc,#88] ; [0x64c] = 0x50004240
        0x000005f2:    2000        .       MOVS     r0,#0
        0x000005f4:    6208        .b      STR      r0,[r1,#0x20]
        0x000005f6:    4a16        .J      LDR      r2,[pc,#88] ; [0x650] = 0x40040040
        0x000005f8:    6150        Pa      STR      r0,[r2,#0x14]
        0x000005fa:    4816        .H      LDR      r0,[pc,#88] ; [0x654] = 0x40010000
        0x000005fc:    6801        .h      LDR      r1,[r0,#0]
        0x000005fe:    0383        ..      LSLS     r3,r0,#14
        0x00000600:    4399        .C      BICS     r1,r1,r3
        0x00000602:    6001        .`      STR      r1,[r0,#0]
        0x00000604:    4913        .I      LDR      r1,[pc,#76] ; [0x654] = 0x40010000
        0x00000606:    3120         1      ADDS     r1,r1,#0x20
        0x00000608:    680c        .h      LDR      r4,[r1,#0]
        0x0000060a:    439c        .C      BICS     r4,r4,r3
        0x0000060c:    600c        .`      STR      r4,[r1,#0]
        0x0000060e:    6804        .h      LDR      r4,[r0,#0]
        0x00000610:    0343        C.      LSLS     r3,r0,#13
        0x00000612:    439c        .C      BICS     r4,r4,r3
        0x00000614:    6004        .`      STR      r4,[r0,#0]
        0x00000616:    6808        .h      LDR      r0,[r1,#0]
        0x00000618:    4398        .C      BICS     r0,r0,r3
        0x0000061a:    6008        .`      STR      r0,[r1,#0]
        0x0000061c:    20ff        .       MOVS     r0,#0xff
        0x0000061e:    63d0        .c      STR      r0,[r2,#0x3c]
        0x00000620:    6390        .c      STR      r0,[r2,#0x38]
        0x00000622:    f000f87e    ..~.    BL       COMM_Manager ; 0x722
        0x00000626:    e7fc        ..      B        0x622 ; main + 62
    __NVIC_EnableIRQ
        0x00000628:    2800        .(      CMP      r0,#0
        0x0000062a:    db05        ..      BLT      0x638 ; __NVIC_EnableIRQ + 16
        0x0000062c:    06c1        ..      LSLS     r1,r0,#27
        0x0000062e:    0ec9        ..      LSRS     r1,r1,#27
        0x00000630:    2001        .       MOVS     r0,#1
        0x00000632:    4088        .@      LSLS     r0,r0,r1
        0x00000634:    4908        .I      LDR      r1,[pc,#32] ; [0x658] = 0xe000e100
        0x00000636:    6008        .`      STR      r0,[r1,#0]
        0x00000638:    4770        pG      BX       lr
    $d
        0x0000063a:    0000        ..      DCW    0
        0x0000063c:    0001affe    ....    DCD    110590
        0x00000640:    e000e000    ....    DCD    3758153728
        0x00000644:    20000288    ...     DCD    536871560
        0x00000648:    20000024    $..     DCD    536870948
        0x0000064c:    50004240    @B.P    DCD    1342194240
        0x00000650:    40040040    @..@    DCD    1074004032
        0x00000654:    40010000    ...@    DCD    1073807360
        0x00000658:    e000e100    ....    DCD    3758153984
    $t
    .text
    calCRC16
        0x0000065c:    b570        p.      PUSH     {r4-r6,lr}
        0x0000065e:    4605        .F      MOV      r5,r0
        0x00000660:    2000        .       MOVS     r0,#0
        0x00000662:    4602        .F      MOV      r2,r0
        0x00000664:    4e6f        oN      LDR      r6,[pc,#444] ; [0x824] = 0x20000040
        0x00000666:    e00b        ..      B        0x680 ; calCRC16 + 36
        0x00000668:    0a04        ..      LSRS     r4,r0,#8
        0x0000066a:    07d3        ..      LSLS     r3,r2,#31
        0x0000066c:    d00b        ..      BEQ      0x686 ; calCRC16 + 42
        0x0000066e:    1e53        S.      SUBS     r3,r2,#1
        0x00000670:    5ceb        .\      LDRB     r3,[r5,r3]
        0x00000672:    0200        ..      LSLS     r0,r0,#8
        0x00000674:    405c        \@      EORS     r4,r4,r3
        0x00000676:    0063        c.      LSLS     r3,r4,#1
        0x00000678:    5af3        .Z      LDRH     r3,[r6,r3]
        0x0000067a:    4058        X@      EORS     r0,r0,r3
        0x0000067c:    b280        ..      UXTH     r0,r0
        0x0000067e:    1c52        R.      ADDS     r2,r2,#1
        0x00000680:    428a        .B      CMP      r2,r1
        0x00000682:    d3f1        ..      BCC      0x668 ; calCRC16 + 12
        0x00000684:    bd70        p.      POP      {r4-r6,pc}
        0x00000686:    1c53        S.      ADDS     r3,r2,#1
        0x00000688:    e7f2        ..      B        0x670 ; calCRC16 + 20
    nReadCommandHandler
        0x0000068a:    b510        ..      PUSH     {r4,lr}
        0x0000068c:    4c65        eL      LDR      r4,[pc,#404] ; [0x824] = 0x20000040
        0x0000068e:    b2c0        ..      UXTB     r0,r0
        0x00000690:    3c18        .<      SUBS     r4,r4,#0x18
        0x00000692:    7020         p      STRB     r0,[r4,#0]
        0x00000694:    281a        .(      CMP      r0,#0x1a
        0x00000696:    d20d        ..      BCS      0x6b4 ; nReadCommandHandler + 42
        0x00000698:    4963        cI      LDR      r1,[pc,#396] ; [0x828] = 0x20000288
        0x0000069a:    0040        @.      LSLS     r0,r0,#1
        0x0000069c:    5a08        .Z      LDRH     r0,[r1,r0]
        0x0000069e:    8060        `.      STRH     r0,[r4,#2]
        0x000006a0:    4962        bI      LDR      r1,[pc,#392] ; [0x82c] = 0x40030000
        0x000006a2:    b280        ..      UXTH     r0,r0
        0x000006a4:    6208        .b      STR      r0,[r1,#0x20]
        0x000006a6:    2102        .!      MOVS     r1,#2
        0x000006a8:    1ca0        ..      ADDS     r0,r4,#2
        0x000006aa:    f7ffffd7    ....    BL       calCRC16 ; 0x65c
        0x000006ae:    80e0        ..      STRH     r0,[r4,#6]
        0x000006b0:    2000        .       MOVS     r0,#0
        0x000006b2:    bd10        ..      POP      {r4,pc}
        0x000006b4:    2000        .       MOVS     r0,#0
        0x000006b6:    80e0        ..      STRH     r0,[r4,#6]
        0x000006b8:    1e40        @.      SUBS     r0,r0,#1
        0x000006ba:    bd10        ..      POP      {r4,pc}
    nWriteCommandHandler
        0x000006bc:    b500        ..      PUSH     {lr}
        0x000006be:    8801        ..      LDRH     r1,[r0,#0]
        0x000006c0:    044a        J.      LSLS     r2,r1,#17
        0x000006c2:    0c52        R.      LSRS     r2,r2,#17
        0x000006c4:    4958        XI      LDR      r1,[pc,#352] ; [0x828] = 0x20000288
        0x000006c6:    0013        ..      MOVS     r3,r2
        0x000006c8:    f001f884    ....    BL       __ARM_common_switch8 ; 0x17d4
    $d
        0x000006cc:    06062809    .(..    DCD    101066761
        0x000006d0:    1815120f    ....    DCD    404034063
        0x000006d4:    0028201b    . (.    DCD    2629659
    $t
        0x000006d8:    884a        J.      LDRH     r2,[r1,#2]
        0x000006da:    7880        .x      LDRB     r0,[r0,#2]
        0x000006dc:    0852        R.      LSRS     r2,r2,#1
        0x000006de:    0052        R.      LSLS     r2,r2,#1
        0x000006e0:    07c0        ..      LSLS     r0,r0,#31
        0x000006e2:    0fc0        ..      LSRS     r0,r0,#31
        0x000006e4:    4302        .C      ORRS     r2,r2,r0
        0x000006e6:    804a        J.      STRH     r2,[r1,#2]
        0x000006e8:    e016        ..      B        0x718 ; nWriteCommandHandler + 92
        0x000006ea:    8840        @.      LDRH     r0,[r0,#2]
        0x000006ec:    8148        H.      STRH     r0,[r1,#0xa]
        0x000006ee:    e013        ..      B        0x718 ; nWriteCommandHandler + 92
        0x000006f0:    8840        @.      LDRH     r0,[r0,#2]
        0x000006f2:    8188        ..      STRH     r0,[r1,#0xc]
        0x000006f4:    e010        ..      B        0x718 ; nWriteCommandHandler + 92
        0x000006f6:    8840        @.      LDRH     r0,[r0,#2]
        0x000006f8:    81c8        ..      STRH     r0,[r1,#0xe]
        0x000006fa:    e00d        ..      B        0x718 ; nWriteCommandHandler + 92
        0x000006fc:    8840        @.      LDRH     r0,[r0,#2]
        0x000006fe:    8248        H.      STRH     r0,[r1,#0x12]
        0x00000700:    e00a        ..      B        0x718 ; nWriteCommandHandler + 92
        0x00000702:    698a        .i      LDR      r2,[r1,#0x18]
        0x00000704:    8840        @.      LDRH     r0,[r0,#2]
        0x00000706:    0c12        ..      LSRS     r2,r2,#16
        0x00000708:    0412        ..      LSLS     r2,r2,#16
        0x0000070a:    e003        ..      B        0x714 ; nWriteCommandHandler + 88
        0x0000070c:    698a        .i      LDR      r2,[r1,#0x18]
        0x0000070e:    8840        @.      LDRH     r0,[r0,#2]
        0x00000710:    b292        ..      UXTH     r2,r2
        0x00000712:    0400        ..      LSLS     r0,r0,#16
        0x00000714:    4302        .C      ORRS     r2,r2,r0
        0x00000716:    618a        .a      STR      r2,[r1,#0x18]
        0x00000718:    2000        .       MOVS     r0,#0
        0x0000071a:    bd00        ..      POP      {pc}
        0x0000071c:    2000        .       MOVS     r0,#0
        0x0000071e:    43c0        .C      MVNS     r0,r0
        0x00000720:    bd00        ..      POP      {pc}
    COMM_Manager
        0x00000722:    b5f8        ..      PUSH     {r3-r7,lr}
        0x00000724:    4d40        @M      LDR      r5,[pc,#256] ; [0x828] = 0x20000288
        0x00000726:    88a8        ..      LDRH     r0,[r5,#4]
        0x00000728:    4c41        AL      LDR      r4,[pc,#260] ; [0x830] = 0x20000028
        0x0000072a:    4e40        @N      LDR      r6,[pc,#256] ; [0x82c] = 0x40030000
        0x0000072c:    06c0        ..      LSLS     r0,r0,#27
        0x0000072e:    d552        R.      BPL      0x7d6 ; COMM_Manager + 180
        0x00000730:    88a8        ..      LDRH     r0,[r5,#4]
        0x00000732:    2110        .!      MOVS     r1,#0x10
        0x00000734:    4388        .C      BICS     r0,r0,r1
        0x00000736:    80a8        ..      STRH     r0,[r5,#4]
        0x00000738:    6930        0i      LDR      r0,[r6,#0x10]
        0x0000073a:    4627        'F      MOV      r7,r4
        0x0000073c:    b280        ..      UXTH     r0,r0
        0x0000073e:    80a0        ..      STRH     r0,[r4,#4]
        0x00000740:    7861        ax      LDRB     r1,[r4,#1]
        0x00000742:    4a3c        <J      LDR      r2,[pc,#240] ; [0x834] = 0xffff
        0x00000744:    3710        .7      ADDS     r7,r7,#0x10
        0x00000746:    000b        ..      MOVS     r3,r1
        0x00000748:    f001f844    ..D.    BL       __ARM_common_switch8 ; 0x17d4
    $d
        0x0000074c:    2a210405    ..!*    DCD    706806789
        0x00000750:    003e122d    -.>.    DCD    4067885
    $t
        0x00000754:    4290        .B      CMP      r0,r2
        0x00000756:    d006        ..      BEQ      0x766 ; COMM_Manager + 68
        0x00000758:    2800        .(      CMP      r0,#0
        0x0000075a:    d004        ..      BEQ      0x766 ; COMM_Manager + 68
        0x0000075c:    8038        8.      STRH     r0,[r7,#0]
        0x0000075e:    0bc0        ..      LSRS     r0,r0,#15
        0x00000760:    d004        ..      BEQ      0x76c ; COMM_Manager + 74
        0x00000762:    2001        .       MOVS     r0,#1
        0x00000764:    e011        ..      B        0x78a ; COMM_Manager + 104
        0x00000766:    2000        .       MOVS     r0,#0
        0x00000768:    6230        0b      STR      r0,[r6,#0x20]
        0x0000076a:    e030        0.      B        0x7ce ; COMM_Manager + 172
        0x0000076c:    2002        .       MOVS     r0,#2
        0x0000076e:    e00c        ..      B        0x78a ; COMM_Manager + 104
        0x00000770:    4290        .B      CMP      r0,r2
        0x00000772:    d102        ..      BNE      0x77a ; COMM_Manager + 88
        0x00000774:    88e0        ..      LDRH     r0,[r4,#6]
        0x00000776:    6230        0b      STR      r0,[r6,#0x20]
        0x00000778:    e006        ..      B        0x788 ; COMM_Manager + 102
        0x0000077a:    0bc1        ..      LSRS     r1,r0,#15
        0x0000077c:    d001        ..      BEQ      0x782 ; COMM_Manager + 96
        0x0000077e:    8038        8.      STRH     r0,[r7,#0]
        0x00000780:    e7f4        ..      B        0x76c ; COMM_Manager + 74
        0x00000782:    6b28        (k      LDR      r0,[r5,#0x30]
        0x00000784:    1c40        @.      ADDS     r0,r0,#1
        0x00000786:    6328        (c      STR      r0,[r5,#0x30]
        0x00000788:    2000        .       MOVS     r0,#0
        0x0000078a:    7060        `p      STRB     r0,[r4,#1]
        0x0000078c:    e01f        ..      B        0x7ce ; COMM_Manager + 172
        0x0000078e:    8078        x.      STRH     r0,[r7,#2]
        0x00000790:    8838        8.      LDRH     r0,[r7,#0]
        0x00000792:    f7ffff7a    ..z.    BL       nReadCommandHandler ; 0x68a
        0x00000796:    e013        ..      B        0x7c0 ; COMM_Manager + 158
        0x00000798:    6ae8        .j      LDR      r0,[r5,#0x2c]
        0x0000079a:    1c40        @.      ADDS     r0,r0,#1
        0x0000079c:    62e8        .b      STR      r0,[r5,#0x2c]
        0x0000079e:    e011        ..      B        0x7c4 ; COMM_Manager + 162
        0x000007a0:    8078        x.      STRH     r0,[r7,#2]
        0x000007a2:    2003        .       MOVS     r0,#3
        0x000007a4:    e7f1        ..      B        0x78a ; COMM_Manager + 104
        0x000007a6:    80b8        ..      STRH     r0,[r7,#4]
        0x000007a8:    481e        .H      LDR      r0,[pc,#120] ; [0x824] = 0x20000040
        0x000007aa:    2104        .!      MOVS     r1,#4
        0x000007ac:    3808        .8      SUBS     r0,r0,#8
        0x000007ae:    f7ffff55    ..U.    BL       calCRC16 ; 0x65c
        0x000007b2:    88b9        ..      LDRH     r1,[r7,#4]
        0x000007b4:    4288        .B      CMP      r0,r1
        0x000007b6:    d105        ..      BNE      0x7c4 ; COMM_Manager + 162
        0x000007b8:    481a        .H      LDR      r0,[pc,#104] ; [0x824] = 0x20000040
        0x000007ba:    3808        .8      SUBS     r0,r0,#8
        0x000007bc:    f7ffff7e    ..~.    BL       nWriteCommandHandler ; 0x6bc
        0x000007c0:    2800        .(      CMP      r0,#0
        0x000007c2:    d0e9        ..      BEQ      0x798 ; COMM_Manager + 118
        0x000007c4:    2004        .       MOVS     r0,#4
        0x000007c6:    e7e0        ..      B        0x78a ; COMM_Manager + 104
        0x000007c8:    6b28        (k      LDR      r0,[r5,#0x30]
        0x000007ca:    1c40        @.      ADDS     r0,r0,#1
        0x000007cc:    6328        (c      STR      r0,[r5,#0x30]
        0x000007ce:    6831        1h      LDR      r1,[r6,#0]
        0x000007d0:    2001        .       MOVS     r0,#1
        0x000007d2:    4301        .C      ORRS     r1,r1,r0
        0x000007d4:    6031        1`      STR      r1,[r6,#0]
        0x000007d6:    4818        .H      LDR      r0,[pc,#96] ; [0x838] = 0x20000000
        0x000007d8:    6801        .h      LDR      r1,[r0,#0]
        0x000007da:    68e2        .h      LDR      r2,[r4,#0xc]
        0x000007dc:    1a89        ..      SUBS     r1,r1,r2
        0x000007de:    22ff        ."      MOVS     r2,#0xff
        0x000007e0:    32f5        .2      ADDS     r2,r2,#0xf5
        0x000007e2:    4291        .B      CMP      r1,r2
        0x000007e4:    d910        ..      BLS      0x808 ; COMM_Manager + 230
        0x000007e6:    6800        .h      LDR      r0,[r0,#0]
        0x000007e8:    60e0        .`      STR      r0,[r4,#0xc]
        0x000007ea:    6ae8        .j      LDR      r0,[r5,#0x2c]
        0x000007ec:    68a1        .h      LDR      r1,[r4,#8]
        0x000007ee:    4288        .B      CMP      r0,r1
        0x000007f0:    d108        ..      BNE      0x804 ; COMM_Manager + 226
        0x000007f2:    f000ffaf    ....    BL       BLDC_stopMotor ; 0x1754
        0x000007f6:    2002        .       MOVS     r0,#2
        0x000007f8:    f000f993    ....    BL       setError ; 0xb22
        0x000007fc:    6831        1h      LDR      r1,[r6,#0]
        0x000007fe:    2001        .       MOVS     r0,#1
        0x00000800:    4301        .C      ORRS     r1,r1,r0
        0x00000802:    6031        1`      STR      r1,[r6,#0]
        0x00000804:    6ae8        .j      LDR      r0,[r5,#0x2c]
        0x00000806:    60a0        .`      STR      r0,[r4,#8]
        0x00000808:    6b28        (k      LDR      r0,[r5,#0x30]
        0x0000080a:    2806        .(      CMP      r0,#6
        0x0000080c:    d908        ..      BLS      0x820 ; COMM_Manager + 254
        0x0000080e:    f000ffa1    ....    BL       BLDC_stopMotor ; 0x1754
        0x00000812:    2002        .       MOVS     r0,#2
        0x00000814:    f000f985    ....    BL       setError ; 0xb22
        0x00000818:    6831        1h      LDR      r1,[r6,#0]
        0x0000081a:    2001        .       MOVS     r0,#1
        0x0000081c:    4301        .C      ORRS     r1,r1,r0
        0x0000081e:    6031        1`      STR      r1,[r6,#0]
        0x00000820:    bdf8        ..      POP      {r3-r7,pc}
    $d
        0x00000822:    0000        ..      DCW    0
        0x00000824:    20000040    @..     DCD    536870976
        0x00000828:    20000288    ...     DCD    536871560
        0x0000082c:    40030000    ...@    DCD    1073938432
        0x00000830:    20000028    (..     DCD    536870952
        0x00000834:    0000ffff    ....    DCD    65535
        0x00000838:    20000000    ...     DCD    536870912
    $t
    .text
    TMR0_IRQHandler
        0x0000083c:    b510        ..      PUSH     {r4,lr}
        0x0000083e:    499e        .I      LDR      r1,[pc,#632] ; [0xab8] = 0x40010000
        0x00000840:    6888        .h      LDR      r0,[r1,#8]
        0x00000842:    6088        .`      STR      r0,[r1,#8]
        0x00000844:    4a9d        .J      LDR      r2,[pc,#628] ; [0xabc] = 0x2000000a
        0x00000846:    2001        .       MOVS     r0,#1
        0x00000848:    7010        .p      STRB     r0,[r2,#0]
        0x0000084a:    489d        .H      LDR      r0,[pc,#628] ; [0xac0] = 0x20000288
        0x0000084c:    8880        ..      LDRH     r0,[r0,#4]
        0x0000084e:    0780        ..      LSLS     r0,r0,#30
        0x00000850:    d519        ..      BPL      0x886 ; TMR0_IRQHandler + 74
        0x00000852:    4a99        .J      LDR      r2,[pc,#612] ; [0xab8] = 0x40010000
        0x00000854:    3220         2      ADDS     r2,r2,#0x20
        0x00000856:    6810        .h      LDR      r0,[r2,#0]
        0x00000858:    034b        K.      LSLS     r3,r1,#13
        0x0000085a:    4398        .C      BICS     r0,r0,r3
        0x0000085c:    6010        .`      STR      r0,[r2,#0]
        0x0000085e:    2000        .       MOVS     r0,#0
        0x00000860:    43c0        .C      MVNS     r0,r0
        0x00000862:    6288        .b      STR      r0,[r1,#0x28]
        0x00000864:    6ac8        .j      LDR      r0,[r1,#0x2c]
        0x00000866:    4c97        .L      LDR      r4,[pc,#604] ; [0xac4] = 0xffffff
        0x00000868:    30a0        .0      ADDS     r0,r0,#0xa0
        0x0000086a:    42a0        .B      CMP      r0,r4
        0x0000086c:    6ac8        .j      LDR      r0,[r1,#0x2c]
        0x0000086e:    d302        ..      BCC      0x876 ; TMR0_IRQHandler + 58
        0x00000870:    4c95        .L      LDR      r4,[pc,#596] ; [0xac8] = 0xff0000a1
        0x00000872:    1900        ..      ADDS     r0,r0,r4
        0x00000874:    e000        ..      B        0x878 ; TMR0_IRQHandler + 60
        0x00000876:    30a0        .0      ADDS     r0,r0,#0xa0
        0x00000878:    6248        Hb      STR      r0,[r1,#0x24]
        0x0000087a:    4994        .I      LDR      r1,[pc,#592] ; [0xacc] = 0x20000020
        0x0000087c:    2000        .       MOVS     r0,#0
        0x0000087e:    7008        .p      STRB     r0,[r1,#0]
        0x00000880:    6810        .h      LDR      r0,[r2,#0]
        0x00000882:    4318        .C      ORRS     r0,r0,r3
        0x00000884:    6010        .`      STR      r0,[r2,#0]
        0x00000886:    bd10        ..      POP      {r4,pc}
    PhaseZXDedHandler
        0x00000888:    b530        0.      PUSH     {r4,r5,lr}
        0x0000088a:    4a91        .J      LDR      r2,[pc,#580] ; [0xad0] = 0x2000001c
        0x0000088c:    6811        .h      LDR      r1,[r2,#0]
        0x0000088e:    4288        .B      CMP      r0,r1
        0x00000890:    d902        ..      BLS      0x898 ; PhaseZXDedHandler + 16
        0x00000892:    6811        .h      LDR      r1,[r2,#0]
        0x00000894:    1a41        A.      SUBS     r1,r0,r1
        0x00000896:    e003        ..      B        0x8a0 ; PhaseZXDedHandler + 24
        0x00000898:    6813        .h      LDR      r3,[r2,#0]
        0x0000089a:    498a        .I      LDR      r1,[pc,#552] ; [0xac4] = 0xffffff
        0x0000089c:    1ac9        ..      SUBS     r1,r1,r3
        0x0000089e:    1809        ..      ADDS     r1,r1,r0
        0x000008a0:    460c        .F      MOV      r4,r1
        0x000008a2:    4b8c        .K      LDR      r3,[pc,#560] ; [0xad4] = 0x20000240
        0x000008a4:    3cff        .<      SUBS     r4,r4,#0xff
        0x000008a6:    4d8c        .M      LDR      r5,[pc,#560] ; [0xad8] = 0x251b
        0x000008a8:    3cf6        .<      SUBS     r4,r4,#0xf6
        0x000008aa:    6059        Y`      STR      r1,[r3,#4]
        0x000008ac:    42ac        .B      CMP      r4,r5
        0x000008ae:    d221        !.      BCS      0x8f4 ; PhaseZXDedHandler + 108
        0x000008b0:    6010        .`      STR      r0,[r2,#0]
        0x000008b2:    4883        .H      LDR      r0,[pc,#524] ; [0xac0] = 0x20000288
        0x000008b4:    8882        ..      LDRH     r2,[r0,#4]
        0x000008b6:    2408        .$      MOVS     r4,#8
        0x000008b8:    4322        "C      ORRS     r2,r2,r4
        0x000008ba:    8082        ..      STRH     r2,[r0,#4]
        0x000008bc:    8882        ..      LDRH     r2,[r0,#4]
        0x000008be:    0752        R.      LSLS     r2,r2,#29
        0x000008c0:    d516        ..      BPL      0x8f0 ; PhaseZXDedHandler + 104
        0x000008c2:    69c2        .i      LDR      r2,[r0,#0x1c]
        0x000008c4:    1851        Q.      ADDS     r1,r2,r1
        0x000008c6:    0849        I.      LSRS     r1,r1,#1
        0x000008c8:    61c1        .a      STR      r1,[r0,#0x1c]
        0x000008ca:    69c0        .i      LDR      r0,[r0,#0x1c]
        0x000008cc:    4a7a        zJ      LDR      r2,[pc,#488] ; [0xab8] = 0x40010000
        0x000008ce:    0840        @.      LSRS     r0,r0,#1
        0x000008d0:    6098        .`      STR      r0,[r3,#8]
        0x000008d2:    68d3        .h      LDR      r3,[r2,#0xc]
        0x000008d4:    21ff        .!      MOVS     r1,#0xff
        0x000008d6:    3105        .1      ADDS     r1,#5
        0x000008d8:    4288        .B      CMP      r0,r1
        0x000008da:    d901        ..      BLS      0x8e0 ; PhaseZXDedHandler + 88
        0x000008dc:    2101        .!      MOVS     r1,#1
        0x000008de:    e000        ..      B        0x8e2 ; PhaseZXDedHandler + 90
        0x000008e0:    2100        .!      MOVS     r1,#0
        0x000008e2:    42cb        .B      CMN      r3,r1
        0x000008e4:    d002        ..      BEQ      0x8ec ; PhaseZXDedHandler + 100
        0x000008e6:    38ff        .8      SUBS     r0,r0,#0xff
        0x000008e8:    3805        .8      SUBS     r0,#5
        0x000008ea:    e000        ..      B        0x8ee ; PhaseZXDedHandler + 102
        0x000008ec:    2032        2       MOVS     r0,#0x32
        0x000008ee:    6050        P`      STR      r0,[r2,#4]
        0x000008f0:    2001        .       MOVS     r0,#1
        0x000008f2:    bd30        0.      POP      {r4,r5,pc}
        0x000008f4:    2000        .       MOVS     r0,#0
        0x000008f6:    bd30        0.      POP      {r4,r5,pc}
    TMR1_IRQHandler
        0x000008f8:    b5f0        ..      PUSH     {r4-r7,lr}
        0x000008fa:    2000        .       MOVS     r0,#0
        0x000008fc:    496e        nI      LDR      r1,[pc,#440] ; [0xab8] = 0x40010000
        0x000008fe:    43c0        .C      MVNS     r0,r0
        0x00000900:    6288        .b      STR      r0,[r1,#0x28]
        0x00000902:    4872        rH      LDR      r0,[pc,#456] ; [0xacc] = 0x20000020
        0x00000904:    7801        .x      LDRB     r1,[r0,#0]
        0x00000906:    4d6c        lM      LDR      r5,[pc,#432] ; [0xab8] = 0x40010000
        0x00000908:    2701        .'      MOVS     r7,#1
        0x0000090a:    077f        ..      LSLS     r7,r7,#29
        0x0000090c:    2602        .&      MOVS     r6,#2
        0x0000090e:    4c73        sL      LDR      r4,[pc,#460] ; [0xadc] = 0x400d0000
        0x00000910:    3520         5      ADDS     r5,r5,#0x20
        0x00000912:    2900        .)      CMP      r1,#0
        0x00000914:    d014        ..      BEQ      0x940 ; TMR1_IRQHandler + 72
        0x00000916:    4872        rH      LDR      r0,[pc,#456] ; [0xae0] = 0x40040040
        0x00000918:    6b80        .k      LDR      r0,[r0,#0x38]
        0x0000091a:    68a1        .h      LDR      r1,[r4,#8]
        0x0000091c:    0600        ..      LSLS     r0,r0,#24
        0x0000091e:    0fc0        ..      LSRS     r0,r0,#31
        0x00000920:    0749        I.      LSLS     r1,r1,#29
        0x00000922:    0fc9        ..      LSRS     r1,r1,#31
        0x00000924:    4288        .B      CMP      r0,r1
        0x00000926:    d10a        ..      BNE      0x93e ; TMR1_IRQHandler + 70
        0x00000928:    68e8        .h      LDR      r0,[r5,#0xc]
        0x0000092a:    f7ffffad    ....    BL       PhaseZXDedHandler ; 0x888
        0x0000092e:    2801        .(      CMP      r0,#1
        0x00000930:    d105        ..      BNE      0x93e ; TMR1_IRQHandler + 70
        0x00000932:    6820         h      LDR      r0,[r4,#0]
        0x00000934:    43b0        .C      BICS     r0,r0,r6
        0x00000936:    6020         `      STR      r0,[r4,#0]
        0x00000938:    6828        (h      LDR      r0,[r5,#0]
        0x0000093a:    43b8        .C      BICS     r0,r0,r7
        0x0000093c:    6028        (`      STR      r0,[r5,#0]
        0x0000093e:    bdf0        ..      POP      {r4-r7,pc}
        0x00000940:    6829        )h      LDR      r1,[r5,#0]
        0x00000942:    43b9        .C      BICS     r1,r1,r7
        0x00000944:    6029        )`      STR      r1,[r5,#0]
        0x00000946:    2101        .!      MOVS     r1,#1
        0x00000948:    7001        .p      STRB     r1,[r0,#0]
        0x0000094a:    68a0        .h      LDR      r0,[r4,#8]
        0x0000094c:    4308        .C      ORRS     r0,r0,r1
        0x0000094e:    60a0        .`      STR      r0,[r4,#8]
        0x00000950:    6820         h      LDR      r0,[r4,#0]
        0x00000952:    4330        0C      ORRS     r0,r0,r6
        0x00000954:    6020         `      STR      r0,[r4,#0]
        0x00000956:    bdf0        ..      POP      {r4-r7,pc}
    ACMP_IRQHandler
        0x00000958:    4860        `H      LDR      r0,[pc,#384] ; [0xadc] = 0x400d0000
        0x0000095a:    6881        .h      LDR      r1,[r0,#8]
        0x0000095c:    2201        ."      MOVS     r2,#1
        0x0000095e:    4311        .C      ORRS     r1,r1,r2
        0x00000960:    6081        .`      STR      r1,[r0,#8]
        0x00000962:    485a        ZH      LDR      r0,[pc,#360] ; [0xacc] = 0x20000020
        0x00000964:    7800        .x      LDRB     r0,[r0,#0]
        0x00000966:    2801        .(      CMP      r0,#1
        0x00000968:    d112        ..      BNE      0x990 ; ACMP_IRQHandler + 56
        0x0000096a:    4953        SI      LDR      r1,[pc,#332] ; [0xab8] = 0x40010000
        0x0000096c:    6ac8        .j      LDR      r0,[r1,#0x2c]
        0x0000096e:    4a55        UJ      LDR      r2,[pc,#340] ; [0xac4] = 0xffffff
        0x00000970:    30c8        .0      ADDS     r0,r0,#0xc8
        0x00000972:    4290        .B      CMP      r0,r2
        0x00000974:    6ac8        .j      LDR      r0,[r1,#0x2c]
        0x00000976:    d303        ..      BCC      0x980 ; ACMP_IRQHandler + 40
        0x00000978:    4a53        SJ      LDR      r2,[pc,#332] ; [0xac8] = 0xff0000a1
        0x0000097a:    3228        (2      ADDS     r2,r2,#0x28
        0x0000097c:    1880        ..      ADDS     r0,r0,r2
        0x0000097e:    e000        ..      B        0x982 ; ACMP_IRQHandler + 42
        0x00000980:    30c8        .0      ADDS     r0,r0,#0xc8
        0x00000982:    6248        Hb      STR      r0,[r1,#0x24]
        0x00000984:    484c        LH      LDR      r0,[pc,#304] ; [0xab8] = 0x40010000
        0x00000986:    3020         0      ADDS     r0,r0,#0x20
        0x00000988:    6801        .h      LDR      r1,[r0,#0]
        0x0000098a:    0602        ..      LSLS     r2,r0,#24
        0x0000098c:    4311        .C      ORRS     r1,r1,r2
        0x0000098e:    6001        .`      STR      r1,[r0,#0]
        0x00000990:    4770        pG      BX       lr
    ADC_IRQHandler
        0x00000992:    b5f8        ..      PUSH     {r3-r7,lr}
        0x00000994:    4e53        SN      LDR      r6,[pc,#332] ; [0xae4] = 0x400e0000
        0x00000996:    6b30        0k      LDR      r0,[r6,#0x30]
        0x00000998:    4c4e        NL      LDR      r4,[pc,#312] ; [0xad4] = 0x20000240
        0x0000099a:    0740        @.      LSLS     r0,r0,#29
        0x0000099c:    0f40        @.      LSRS     r0,r0,#29
        0x0000099e:    60e0        .`      STR      r0,[r4,#0xc]
        0x000009a0:    07c1        ..      LSLS     r1,r0,#31
        0x000009a2:    d01d        ..      BEQ      0x9e0 ; ADC_IRQHandler + 78
        0x000009a4:    6a71        qj      LDR      r1,[r6,#0x24]
        0x000009a6:    07ca        ..      LSLS     r2,r1,#31
        0x000009a8:    4945        EI      LDR      r1,[pc,#276] ; [0xac0] = 0x20000288
        0x000009aa:    d008        ..      BEQ      0x9be ; ADC_IRQHandler + 44
        0x000009ac:    6832        2h      LDR      r2,[r6,#0]
        0x000009ae:    0592        ..      LSLS     r2,r2,#22
        0x000009b0:    0d92        ..      LSRS     r2,r2,#22
        0x000009b2:    850a        ..      STRH     r2,[r1,#0x28]
        0x000009b4:    6a71        qj      LDR      r1,[r6,#0x24]
        0x000009b6:    0a09        ..      LSRS     r1,r1,#8
        0x000009b8:    0209        ..      LSLS     r1,r1,#8
        0x000009ba:    3180        .1      ADDS     r1,r1,#0x80
        0x000009bc:    e00a        ..      B        0x9d4 ; ADC_IRQHandler + 66
        0x000009be:    6a72        rj      LDR      r2,[r6,#0x24]
        0x000009c0:    0612        ..      LSLS     r2,r2,#24
        0x000009c2:    d508        ..      BPL      0x9d6 ; ADC_IRQHandler + 68
        0x000009c4:    6832        2h      LDR      r2,[r6,#0]
        0x000009c6:    0592        ..      LSLS     r2,r2,#22
        0x000009c8:    0d92        ..      LSRS     r2,r2,#22
        0x000009ca:    84ca        ..      STRH     r2,[r1,#0x26]
        0x000009cc:    6a71        qj      LDR      r1,[r6,#0x24]
        0x000009ce:    0a09        ..      LSRS     r1,r1,#8
        0x000009d0:    0209        ..      LSLS     r1,r1,#8
        0x000009d2:    1c49        I.      ADDS     r1,r1,#1
        0x000009d4:    6271        qb      STR      r1,[r6,#0x24]
        0x000009d6:    6a31        1j      LDR      r1,[r6,#0x20]
        0x000009d8:    2201        ."      MOVS     r2,#1
        0x000009da:    02d2        ..      LSLS     r2,r2,#11
        0x000009dc:    4311        .C      ORRS     r1,r1,r2
        0x000009de:    6231        1b      STR      r1,[r6,#0x20]
        0x000009e0:    4d35        5M      LDR      r5,[pc,#212] ; [0xab8] = 0x40010000
        0x000009e2:    0780        ..      LSLS     r0,r0,#30
        0x000009e4:    2700        .'      MOVS     r7,#0
        0x000009e6:    3520         5      ADDS     r5,r5,#0x20
        0x000009e8:    2800        .(      CMP      r0,#0
        0x000009ea:    da18        ..      BGE      0xa1e ; ADC_IRQHandler + 140
        0x000009ec:    483e        >H      LDR      r0,[pc,#248] ; [0xae8] = 0x50004240
        0x000009ee:    6207        .b      STR      r7,[r0,#0x20]
        0x000009f0:    493b        ;I      LDR      r1,[pc,#236] ; [0xae0] = 0x40040040
        0x000009f2:    614f        Oa      STR      r7,[r1,#0x14]
        0x000009f4:    4830        0H      LDR      r0,[pc,#192] ; [0xab8] = 0x40010000
        0x000009f6:    6803        .h      LDR      r3,[r0,#0]
        0x000009f8:    0382        ..      LSLS     r2,r0,#14
        0x000009fa:    4393        .C      BICS     r3,r3,r2
        0x000009fc:    6003        .`      STR      r3,[r0,#0]
        0x000009fe:    682b        +h      LDR      r3,[r5,#0]
        0x00000a00:    4393        .C      BICS     r3,r3,r2
        0x00000a02:    602b        +`      STR      r3,[r5,#0]
        0x00000a04:    6803        .h      LDR      r3,[r0,#0]
        0x00000a06:    0342        B.      LSLS     r2,r0,#13
        0x00000a08:    4393        .C      BICS     r3,r3,r2
        0x00000a0a:    6003        .`      STR      r3,[r0,#0]
        0x00000a0c:    6828        (h      LDR      r0,[r5,#0]
        0x00000a0e:    4390        .C      BICS     r0,r0,r2
        0x00000a10:    6028        (`      STR      r0,[r5,#0]
        0x00000a12:    20ff        .       MOVS     r0,#0xff
        0x00000a14:    63c8        .c      STR      r0,[r1,#0x3c]
        0x00000a16:    6388        .c      STR      r0,[r1,#0x38]
        0x00000a18:    2007        .       MOVS     r0,#7
        0x00000a1a:    f000f882    ....    BL       setError ; 0xb22
        0x00000a1e:    7b20         {      LDRB     r0,[r4,#0xc]
        0x00000a20:    0740        @.      LSLS     r0,r0,#29
        0x00000a22:    d529        ).      BPL      0xa78 ; ADC_IRQHandler + 230
        0x00000a24:    4831        1H      LDR      r0,[pc,#196] ; [0xaec] = 0x20000000
        0x00000a26:    6800        .h      LDR      r0,[r0,#0]
        0x00000a28:    6120         a      STR      r0,[r4,#0x10]
        0x00000a2a:    6961        ai      LDR      r1,[r4,#0x14]
        0x00000a2c:    1a40        @.      SUBS     r0,r0,r1
        0x00000a2e:    280a        .(      CMP      r0,#0xa
        0x00000a30:    d21f        ..      BCS      0xa72 ; ADC_IRQHandler + 224
        0x00000a32:    8820         .      LDRH     r0,[r4,#0]
        0x00000a34:    2832        2(      CMP      r0,#0x32
        0x00000a36:    d202        ..      BCS      0xa3e ; ADC_IRQHandler + 172
        0x00000a38:    1c40        @.      ADDS     r0,r0,#1
        0x00000a3a:    8020         .      STRH     r0,[r4,#0]
        0x00000a3c:    e01a        ..      B        0xa74 ; ADC_IRQHandler + 226
        0x00000a3e:    482a        *H      LDR      r0,[pc,#168] ; [0xae8] = 0x50004240
        0x00000a40:    6207        .b      STR      r7,[r0,#0x20]
        0x00000a42:    4927        'I      LDR      r1,[pc,#156] ; [0xae0] = 0x40040040
        0x00000a44:    614f        Oa      STR      r7,[r1,#0x14]
        0x00000a46:    481c        .H      LDR      r0,[pc,#112] ; [0xab8] = 0x40010000
        0x00000a48:    6802        .h      LDR      r2,[r0,#0]
        0x00000a4a:    0383        ..      LSLS     r3,r0,#14
        0x00000a4c:    439a        .C      BICS     r2,r2,r3
        0x00000a4e:    6002        .`      STR      r2,[r0,#0]
        0x00000a50:    682a        *h      LDR      r2,[r5,#0]
        0x00000a52:    439a        .C      BICS     r2,r2,r3
        0x00000a54:    602a        *`      STR      r2,[r5,#0]
        0x00000a56:    6803        .h      LDR      r3,[r0,#0]
        0x00000a58:    0342        B.      LSLS     r2,r0,#13
        0x00000a5a:    4393        .C      BICS     r3,r3,r2
        0x00000a5c:    6003        .`      STR      r3,[r0,#0]
        0x00000a5e:    6828        (h      LDR      r0,[r5,#0]
        0x00000a60:    4390        .C      BICS     r0,r0,r2
        0x00000a62:    6028        (`      STR      r0,[r5,#0]
        0x00000a64:    20ff        .       MOVS     r0,#0xff
        0x00000a66:    63c8        .c      STR      r0,[r1,#0x3c]
        0x00000a68:    6388        .c      STR      r0,[r1,#0x38]
        0x00000a6a:    2005        .       MOVS     r0,#5
        0x00000a6c:    f000f859    ..Y.    BL       setError ; 0xb22
        0x00000a70:    e000        ..      B        0xa74 ; ADC_IRQHandler + 226
        0x00000a72:    8027        '.      STRH     r7,[r4,#0]
        0x00000a74:    6920         i      LDR      r0,[r4,#0x10]
        0x00000a76:    6160        `a      STR      r0,[r4,#0x14]
        0x00000a78:    6b30        0k      LDR      r0,[r6,#0x30]
        0x00000a7a:    68e1        .h      LDR      r1,[r4,#0xc]
        0x00000a7c:    08c0        ..      LSRS     r0,r0,#3
        0x00000a7e:    00c0        ..      LSLS     r0,r0,#3
        0x00000a80:    4308        .C      ORRS     r0,r0,r1
        0x00000a82:    6330        0c      STR      r0,[r6,#0x30]
        0x00000a84:    bdf8        ..      POP      {r3-r7,pc}
    SPI_IRQHandler
        0x00000a86:    2001        .       MOVS     r0,#1
        0x00000a88:    4919        .I      LDR      r1,[pc,#100] ; [0xaf0] = 0x40030040
        0x00000a8a:    0400        ..      LSLS     r0,r0,#16
        0x00000a8c:    6048        H`      STR      r0,[r1,#4]
        0x00000a8e:    4818        .H      LDR      r0,[pc,#96] ; [0xaf0] = 0x40030040
        0x00000a90:    3840        @8      SUBS     r0,r0,#0x40
        0x00000a92:    6881        .h      LDR      r1,[r0,#8]
        0x00000a94:    0689        ..      LSLS     r1,r1,#26
        0x00000a96:    d505        ..      BPL      0xaa4 ; SPI_IRQHandler + 30
        0x00000a98:    4809        .H      LDR      r0,[pc,#36] ; [0xac0] = 0x20000288
        0x00000a9a:    8881        ..      LDRH     r1,[r0,#4]
        0x00000a9c:    2210        ."      MOVS     r2,#0x10
        0x00000a9e:    4311        .C      ORRS     r1,r1,r2
        0x00000aa0:    8081        ..      STRH     r1,[r0,#4]
        0x00000aa2:    4770        pG      BX       lr
        0x00000aa4:    6801        .h      LDR      r1,[r0,#0]
        0x00000aa6:    2201        ."      MOVS     r2,#1
        0x00000aa8:    4311        .C      ORRS     r1,r1,r2
        0x00000aaa:    6001        .`      STR      r1,[r0,#0]
        0x00000aac:    4770        pG      BX       lr
    SysTick_Handler
        0x00000aae:    480f        .H      LDR      r0,[pc,#60] ; [0xaec] = 0x20000000
        0x00000ab0:    6801        .h      LDR      r1,[r0,#0]
        0x00000ab2:    1d49        I.      ADDS     r1,r1,#5
        0x00000ab4:    6001        .`      STR      r1,[r0,#0]
        0x00000ab6:    4770        pG      BX       lr
    $d
        0x00000ab8:    40010000    ...@    DCD    1073807360
        0x00000abc:    2000000a    ...     DCD    536870922
        0x00000ac0:    20000288    ...     DCD    536871560
        0x00000ac4:    00ffffff    ....    DCD    16777215
        0x00000ac8:    ff0000a1    ....    DCD    4278190241
        0x00000acc:    20000020     ..     DCD    536870944
        0x00000ad0:    2000001c    ...     DCD    536870940
        0x00000ad4:    20000240    @..     DCD    536871488
        0x00000ad8:    0000251b    .%..    DCD    9499
        0x00000adc:    400d0000    ...@    DCD    1074593792
        0x00000ae0:    40040040    @..@    DCD    1074004032
        0x00000ae4:    400e0000    ...@    DCD    1074659328
        0x00000ae8:    50004240    @B.P    DCD    1342194240
        0x00000aec:    20000000    ...     DCD    536870912
        0x00000af0:    40030040    @..@    DCD    1073938496
    $t
    .text
    delay
        0x00000af4:    4932        2I      LDR      r1,[pc,#200] ; [0xbc0] = 0x20000000
        0x00000af6:    680a        .h      LDR      r2,[r1,#0]
        0x00000af8:    e000        ..      B        0xafc ; delay + 8
        0x00000afa:    bf00        ..      NOP      
        0x00000afc:    680b        .h      LDR      r3,[r1,#0]
        0x00000afe:    1a9b        ..      SUBS     r3,r3,r2
        0x00000b00:    4283        .B      CMP      r3,r0
        0x00000b02:    d3fa        ..      BCC      0xafa ; delay + 6
        0x00000b04:    4770        pG      BX       lr
    clearError
        0x00000b06:    492f        /I      LDR      r1,[pc,#188] ; [0xbc4] = 0x20000258
        0x00000b08:    2000        .       MOVS     r0,#0
        0x00000b0a:    6088        .`      STR      r0,[r1,#8]
        0x00000b0c:    4770        pG      BX       lr
    resetError
        0x00000b0e:    2800        .(      CMP      r0,#0
        0x00000b10:    d006        ..      BEQ      0xb20 ; resetError + 18
        0x00000b12:    2101        .!      MOVS     r1,#1
        0x00000b14:    1e40        @.      SUBS     r0,r0,#1
        0x00000b16:    4081        .@      LSLS     r1,r1,r0
        0x00000b18:    482a        *H      LDR      r0,[pc,#168] ; [0xbc4] = 0x20000258
        0x00000b1a:    6882        .h      LDR      r2,[r0,#8]
        0x00000b1c:    438a        .C      BICS     r2,r2,r1
        0x00000b1e:    6082        .`      STR      r2,[r0,#8]
        0x00000b20:    4770        pG      BX       lr
    setError
        0x00000b22:    4928        (I      LDR      r1,[pc,#160] ; [0xbc4] = 0x20000258
        0x00000b24:    2800        .(      CMP      r0,#0
        0x00000b26:    d006        ..      BEQ      0xb36 ; setError + 20
        0x00000b28:    2201        ."      MOVS     r2,#1
        0x00000b2a:    1e40        @.      SUBS     r0,r0,#1
        0x00000b2c:    4082        .@      LSLS     r2,r2,r0
        0x00000b2e:    6888        .h      LDR      r0,[r1,#8]
        0x00000b30:    4302        .C      ORRS     r2,r2,r0
        0x00000b32:    608a        .`      STR      r2,[r1,#8]
        0x00000b34:    4770        pG      BX       lr
        0x00000b36:    2000        .       MOVS     r0,#0
        0x00000b38:    6088        .`      STR      r0,[r1,#8]
        0x00000b3a:    4770        pG      BX       lr
    getPrecedenceError
        0x00000b3c:    4921        !I      LDR      r1,[pc,#132] ; [0xbc4] = 0x20000258
        0x00000b3e:    2008        .       MOVS     r0,#8
        0x00000b40:    688a        .h      LDR      r2,[r1,#8]
        0x00000b42:    1e40        @.      SUBS     r0,r0,#1
        0x00000b44:    b2c0        ..      UXTB     r0,r0
        0x00000b46:    4611        .F      MOV      r1,r2
        0x00000b48:    40c1        .@      LSRS     r1,r1,r0
        0x00000b4a:    d002        ..      BEQ      0xb52 ; getPrecedenceError + 22
        0x00000b4c:    1c40        @.      ADDS     r0,r0,#1
        0x00000b4e:    b2c0        ..      UXTB     r0,r0
        0x00000b50:    4770        pG      BX       lr
        0x00000b52:    2800        .(      CMP      r0,#0
        0x00000b54:    d1f5        ..      BNE      0xb42 ; getPrecedenceError + 6
        0x00000b56:    4770        pG      BX       lr
    LEDBlinkHandler
        0x00000b58:    b5f8        ..      PUSH     {r3-r7,lr}
        0x00000b5a:    2700        .'      MOVS     r7,#0
        0x00000b5c:    4c1a        .L      LDR      r4,[pc,#104] ; [0xbc8] = 0x50004280
        0x00000b5e:    4605        .F      MOV      r5,r0
        0x00000b60:    2808        .(      CMP      r0,#8
        0x00000b62:    d010        ..      BEQ      0xb86 ; LEDBlinkHandler + 46
        0x00000b64:    2601        .&      MOVS     r6,#1
        0x00000b66:    2d00        .-      CMP      r5,#0
        0x00000b68:    d00f        ..      BEQ      0xb8a ; LEDBlinkHandler + 50
        0x00000b6a:    4815        .H      LDR      r0,[pc,#84] ; [0xbc0] = 0x20000000
        0x00000b6c:    6800        .h      LDR      r0,[r0,#0]
        0x00000b6e:    1a40        @.      SUBS     r0,r0,r1
        0x00000b70:    217d        }!      MOVS     r1,#0x7d
        0x00000b72:    0109        ..      LSLS     r1,r1,#4
        0x00000b74:    f000fd74    ..t.    BL       __aeabi_uidiv ; 0x1660
        0x00000b78:    4608        .F      MOV      r0,r1
        0x00000b7a:    4a14        .J      LDR      r2,[pc,#80] ; [0xbcc] = 0x1ae8
        0x00000b7c:    00a9        ..      LSLS     r1,r5,#2
        0x00000b7e:    5851        QX      LDR      r1,[r2,r1]
        0x00000b80:    4281        .B      CMP      r1,r0
        0x00000b82:    d902        ..      BLS      0xb8a ; LEDBlinkHandler + 50
        0x00000b84:    e003        ..      B        0xb8e ; LEDBlinkHandler + 54
        0x00000b86:    6327        'c      STR      r7,[r4,#0x30]
        0x00000b88:    bdf8        ..      POP      {r3-r7,pc}
        0x00000b8a:    6326        &c      STR      r6,[r4,#0x30]
        0x00000b8c:    bdf8        ..      POP      {r3-r7,pc}
        0x00000b8e:    21ff        .!      MOVS     r1,#0xff
        0x00000b90:    3191        .1      ADDS     r1,r1,#0x91
        0x00000b92:    f000fd65    ..e.    BL       __aeabi_uidiv ; 0x1660
        0x00000b96:    29c8        .)      CMP      r1,#0xc8
        0x00000b98:    d2f7        ..      BCS      0xb8a ; LEDBlinkHandler + 50
        0x00000b9a:    e7f4        ..      B        0xb86 ; LEDBlinkHandler + 46
    ERR_Manager
        0x00000b9c:    b510        ..      PUSH     {r4,lr}
        0x00000b9e:    f7ffffcd    ....    BL       getPrecedenceError ; 0xb3c
        0x00000ba2:    4a08        .J      LDR      r2,[pc,#32] ; [0xbc4] = 0x20000258
        0x00000ba4:    7811        .x      LDRB     r1,[r2,#0]
        0x00000ba6:    4281        .B      CMP      r1,r0
        0x00000ba8:    d004        ..      BEQ      0xbb4 ; ERR_Manager + 24
        0x00000baa:    4905        .I      LDR      r1,[pc,#20] ; [0xbc0] = 0x20000000
        0x00000bac:    7010        .p      STRB     r0,[r2,#0]
        0x00000bae:    6809        .h      LDR      r1,[r1,#0]
        0x00000bb0:    6051        Q`      STR      r1,[r2,#4]
        0x00000bb2:    e002        ..      B        0xbba ; ERR_Manager + 30
        0x00000bb4:    2800        .(      CMP      r0,#0
        0x00000bb6:    d002        ..      BEQ      0xbbe ; ERR_Manager + 34
        0x00000bb8:    6851        Qh      LDR      r1,[r2,#4]
        0x00000bba:    f7ffffcd    ....    BL       LEDBlinkHandler ; 0xb58
        0x00000bbe:    bd10        ..      POP      {r4,pc}
    $d
        0x00000bc0:    20000000    ...     DCD    536870912
        0x00000bc4:    20000258    X..     DCD    536871512
        0x00000bc8:    50004280    .B.P    DCD    1342194304
        0x00000bcc:    00001ae8    ....    DCD    6888
    $t
    .text
    PTC_checkMotor
        0x00000bd0:    b5f8        ..      PUSH     {r3-r7,lr}
        0x00000bd2:    f7ffff98    ....    BL       clearError ; 0xb06
        0x00000bd6:    4f11        .O      LDR      r7,[pc,#68] ; [0xc1c] = 0x400e0000
        0x00000bd8:    480f        .H      LDR      r0,[pc,#60] ; [0xc18] = 0x50b05
        0x00000bda:    62b8        .b      STR      r0,[r7,#0x28]
        0x00000bdc:    4810        .H      LDR      r0,[pc,#64] ; [0xc20] = 0x1890f39
        0x00000bde:    62f8        .b      STR      r0,[r7,#0x2c]
        0x00000be0:    4e10        .N      LDR      r6,[pc,#64] ; [0xc24] = 0x20000264
        0x00000be2:    2400        .$      MOVS     r4,#0
        0x00000be4:    2000        .       MOVS     r0,#0
        0x00000be6:    00a5        ..      LSLS     r5,r4,#2
        0x00000be8:    5971        qY      LDR      r1,[r6,r5]
        0x00000bea:    6008        .`      STR      r0,[r1,#0]
        0x00000bec:    2032        2       MOVS     r0,#0x32
        0x00000bee:    f7ffff81    ....    BL       delay ; 0xaf4
        0x00000bf2:    5971        qY      LDR      r1,[r6,r5]
        0x00000bf4:    2001        .       MOVS     r0,#1
        0x00000bf6:    6008        .`      STR      r0,[r1,#0]
        0x00000bf8:    480b        .H      LDR      r0,[pc,#44] ; [0xc28] = 0x20000260
        0x00000bfa:    6800        .h      LDR      r0,[r0,#0]
        0x00000bfc:    2800        .(      CMP      r0,#0
        0x00000bfe:    d001        ..      BEQ      0xc04 ; PTC_checkMotor + 52
        0x00000c00:    f000fda8    ....    BL       BLDC_stopMotor ; 0x1754
        0x00000c04:    1c64        d.      ADDS     r4,r4,#1
        0x00000c06:    b2e4        ..      UXTB     r4,r4
        0x00000c08:    2c06        .,      CMP      r4,#6
        0x00000c0a:    d3eb        ..      BCC      0xbe4 ; PTC_checkMotor + 20
        0x00000c0c:    4807        .H      LDR      r0,[pc,#28] ; [0xc2c] = 0x440b05
        0x00000c0e:    62b8        .b      STR      r0,[r7,#0x28]
        0x00000c10:    4807        .H      LDR      r0,[pc,#28] ; [0xc30] = 0x15c0f39
        0x00000c12:    62f8        .b      STR      r0,[r7,#0x2c]
        0x00000c14:    bdf8        ..      POP      {r3-r7,pc}
    $d
        0x00000c16:    0000        ..      DCW    0
        0x00000c18:    00050b05    ....    DCD    330501
        0x00000c1c:    400e0000    ...@    DCD    1074659328
        0x00000c20:    01890f39    9...    DCD    25759545
        0x00000c24:    20000264    d..     DCD    536871524
        0x00000c28:    20000260    `..     DCD    536871520
        0x00000c2c:    00440b05    ..D.    DCD    4459269
        0x00000c30:    015c0f39    9.\.    DCD    22810425
    $t
    .text
    ADC_Open
        0x00000c34:    4831        1H      LDR      r0,[pc,#196] ; [0xcfc] = 0x400e0000
        0x00000c36:    2100        .!      MOVS     r1,#0
        0x00000c38:    6201        .b      STR      r1,[r0,#0x20]
        0x00000c3a:    6a41        Aj      LDR      r1,[r0,#0x24]
        0x00000c3c:    0a09        ..      LSRS     r1,r1,#8
        0x00000c3e:    0209        ..      LSLS     r1,r1,#8
        0x00000c40:    4319        .C      ORRS     r1,r1,r3
        0x00000c42:    6241        Ab      STR      r1,[r0,#0x24]
        0x00000c44:    4770        pG      BX       lr
    ADC_Close
        0x00000c46:    2005        .       MOVS     r0,#5
        0x00000c48:    0700        ..      LSLS     r0,r0,#28
        0x00000c4a:    68c2        .h      LDR      r2,[r0,#0xc]
        0x00000c4c:    2101        .!      MOVS     r1,#1
        0x00000c4e:    0709        ..      LSLS     r1,r1,#28
        0x00000c50:    430a        .C      ORRS     r2,r2,r1
        0x00000c52:    60c2        .`      STR      r2,[r0,#0xc]
        0x00000c54:    68c2        .h      LDR      r2,[r0,#0xc]
        0x00000c56:    438a        .C      BICS     r2,r2,r1
        0x00000c58:    60c2        .`      STR      r2,[r0,#0xc]
        0x00000c5a:    4770        pG      BX       lr
    ADC_EnableHWTrigger
        0x00000c5c:    b530        0.      PUSH     {r4,r5,lr}
        0x00000c5e:    4827        'H      LDR      r0,[pc,#156] ; [0xcfc] = 0x400e0000
        0x00000c60:    6a03        .j      LDR      r3,[r0,#0x20]
        0x00000c62:    24ff        .$      MOVS     r4,#0xff
        0x00000c64:    3471        q4      ADDS     r4,r4,#0x71
        0x00000c66:    43a3        .C      BICS     r3,r3,r4
        0x00000c68:    6203        .b      STR      r3,[r0,#0x20]
        0x00000c6a:    1583        ..      ASRS     r3,r0,#22
        0x00000c6c:    2900        .)      CMP      r1,#0
        0x00000c6e:    d00b        ..      BEQ      0xc88 ; ADC_EnableHWTrigger + 44
        0x00000c70:    4c22        "L      LDR      r4,[pc,#136] ; [0xcfc] = 0x400e0000
        0x00000c72:    3440        @4      ADDS     r4,r4,#0x40
        0x00000c74:    6865        eh      LDR      r5,[r4,#4]
        0x00000c76:    0a2d        -.      LSRS     r5,r5,#8
        0x00000c78:    022d        -.      LSLS     r5,r5,#8
        0x00000c7a:    4315        .C      ORRS     r5,r5,r2
        0x00000c7c:    6065        e`      STR      r5,[r4,#4]
        0x00000c7e:    6a02        .j      LDR      r2,[r0,#0x20]
        0x00000c80:    4319        .C      ORRS     r1,r1,r3
        0x00000c82:    430a        .C      ORRS     r2,r2,r1
        0x00000c84:    6202        .b      STR      r2,[r0,#0x20]
        0x00000c86:    bd30        0.      POP      {r4,r5,pc}
        0x00000c88:    6a01        .j      LDR      r1,[r0,#0x20]
        0x00000c8a:    431a        .C      ORRS     r2,r2,r3
        0x00000c8c:    4311        .C      ORRS     r1,r1,r2
        0x00000c8e:    6201        .b      STR      r1,[r0,#0x20]
        0x00000c90:    bd30        0.      POP      {r4,r5,pc}
    ADC_DisableHWTrigger
        0x00000c92:    481a        .H      LDR      r0,[pc,#104] ; [0xcfc] = 0x400e0000
        0x00000c94:    6a01        .j      LDR      r1,[r0,#0x20]
        0x00000c96:    22ff        ."      MOVS     r2,#0xff
        0x00000c98:    3271        q2      ADDS     r2,r2,#0x71
        0x00000c9a:    4391        .C      BICS     r1,r1,r2
        0x00000c9c:    6201        .b      STR      r1,[r0,#0x20]
        0x00000c9e:    4770        pG      BX       lr
    ADC_SetExtraSampleTime
        0x00000ca0:    4816        .H      LDR      r0,[pc,#88] ; [0xcfc] = 0x400e0000
        0x00000ca2:    3040        @0      ADDS     r0,r0,#0x40
        0x00000ca4:    6881        .h      LDR      r1,[r0,#8]
        0x00000ca6:    0909        ..      LSRS     r1,r1,#4
        0x00000ca8:    0109        ..      LSLS     r1,r1,#4
        0x00000caa:    4311        .C      ORRS     r1,r1,r2
        0x00000cac:    6081        .`      STR      r1,[r0,#8]
        0x00000cae:    4770        pG      BX       lr
    ADC_EnableInt
        0x00000cb0:    07cb        ..      LSLS     r3,r1,#31
        0x00000cb2:    4812        .H      LDR      r0,[pc,#72] ; [0xcfc] = 0x400e0000
        0x00000cb4:    2202        ."      MOVS     r2,#2
        0x00000cb6:    2b00        .+      CMP      r3,#0
        0x00000cb8:    d002        ..      BEQ      0xcc0 ; ADC_EnableInt + 16
        0x00000cba:    6a03        .j      LDR      r3,[r0,#0x20]
        0x00000cbc:    4313        .C      ORRS     r3,r3,r2
        0x00000cbe:    6203        .b      STR      r3,[r0,#0x20]
        0x00000cc0:    078b        ..      LSLS     r3,r1,#30
        0x00000cc2:    d502        ..      BPL      0xcca ; ADC_EnableInt + 26
        0x00000cc4:    6a83        .j      LDR      r3,[r0,#0x28]
        0x00000cc6:    4313        .C      ORRS     r3,r3,r2
        0x00000cc8:    6283        .b      STR      r3,[r0,#0x28]
        0x00000cca:    0749        I.      LSLS     r1,r1,#29
        0x00000ccc:    d502        ..      BPL      0xcd4 ; ADC_EnableInt + 36
        0x00000cce:    6ac1        .j      LDR      r1,[r0,#0x2c]
        0x00000cd0:    4311        .C      ORRS     r1,r1,r2
        0x00000cd2:    62c1        .b      STR      r1,[r0,#0x2c]
        0x00000cd4:    4770        pG      BX       lr
    ADC_DisableInt
        0x00000cd6:    07cb        ..      LSLS     r3,r1,#31
        0x00000cd8:    4808        .H      LDR      r0,[pc,#32] ; [0xcfc] = 0x400e0000
        0x00000cda:    2202        ."      MOVS     r2,#2
        0x00000cdc:    2b00        .+      CMP      r3,#0
        0x00000cde:    d002        ..      BEQ      0xce6 ; ADC_DisableInt + 16
        0x00000ce0:    6a03        .j      LDR      r3,[r0,#0x20]
        0x00000ce2:    4393        .C      BICS     r3,r3,r2
        0x00000ce4:    6203        .b      STR      r3,[r0,#0x20]
        0x00000ce6:    078b        ..      LSLS     r3,r1,#30
        0x00000ce8:    d502        ..      BPL      0xcf0 ; ADC_DisableInt + 26
        0x00000cea:    6a83        .j      LDR      r3,[r0,#0x28]
        0x00000cec:    4393        .C      BICS     r3,r3,r2
        0x00000cee:    6283        .b      STR      r3,[r0,#0x28]
        0x00000cf0:    0749        I.      LSLS     r1,r1,#29
        0x00000cf2:    d502        ..      BPL      0xcfa ; ADC_DisableInt + 36
        0x00000cf4:    6ac1        .j      LDR      r1,[r0,#0x2c]
        0x00000cf6:    4391        .C      BICS     r1,r1,r2
        0x00000cf8:    62c1        .b      STR      r1,[r0,#0x2c]
        0x00000cfa:    4770        pG      BX       lr
    $d
        0x00000cfc:    400e0000    ...@    DCD    1074659328
    $t
    .text
    CLK_DisableCKO
        0x00000d00:    486d        mH      LDR      r0,[pc,#436] ; [0xeb8] = 0x50000200
        0x00000d02:    6881        .h      LDR      r1,[r0,#8]
        0x00000d04:    2240        @"      MOVS     r2,#0x40
        0x00000d06:    4391        .C      BICS     r1,r1,r2
        0x00000d08:    6081        .`      STR      r1,[r0,#8]
        0x00000d0a:    4770        pG      BX       lr
    CLK_EnableCKO
        0x00000d0c:    0152        R.      LSLS     r2,r2,#5
        0x00000d0e:    430a        .C      ORRS     r2,r2,r1
        0x00000d10:    2110        .!      MOVS     r1,#0x10
        0x00000d12:    430a        .C      ORRS     r2,r2,r1
        0x00000d14:    4968        hI      LDR      r1,[pc,#416] ; [0xeb8] = 0x50000200
        0x00000d16:    624a        Jb      STR      r2,[r1,#0x24]
        0x00000d18:    688a        .h      LDR      r2,[r1,#8]
        0x00000d1a:    2340        @#      MOVS     r3,#0x40
        0x00000d1c:    431a        .C      ORRS     r2,r2,r3
        0x00000d1e:    608a        .`      STR      r2,[r1,#8]
        0x00000d20:    69ca        .i      LDR      r2,[r1,#0x1c]
        0x00000d22:    230c        .#      MOVS     r3,#0xc
        0x00000d24:    439a        .C      BICS     r2,r2,r3
        0x00000d26:    4302        .C      ORRS     r2,r2,r0
        0x00000d28:    61ca        .a      STR      r2,[r1,#0x1c]
        0x00000d2a:    4770        pG      BX       lr
    CLK_PowerDown
        0x00000d2c:    4963        cI      LDR      r1,[pc,#396] ; [0xebc] = 0xe000ed00
        0x00000d2e:    2004        .       MOVS     r0,#4
        0x00000d30:    6108        .a      STR      r0,[r1,#0x10]
        0x00000d32:    4861        aH      LDR      r0,[pc,#388] ; [0xeb8] = 0x50000200
        0x00000d34:    6801        .h      LDR      r1,[r0,#0]
        0x00000d36:    22c0        ."      MOVS     r2,#0xc0
        0x00000d38:    4311        .C      ORRS     r1,r1,r2
        0x00000d3a:    6001        .`      STR      r1,[r0,#0]
        0x00000d3c:    bf30        0.      WFI      
        0x00000d3e:    4770        pG      BX       lr
    CLK_Idle
        0x00000d40:    485d        ]H      LDR      r0,[pc,#372] ; [0xeb8] = 0x50000200
        0x00000d42:    6801        .h      LDR      r1,[r0,#0]
        0x00000d44:    2280        ."      MOVS     r2,#0x80
        0x00000d46:    4391        .C      BICS     r1,r1,r2
        0x00000d48:    6001        .`      STR      r1,[r0,#0]
        0x00000d4a:    bf30        0.      WFI      
        0x00000d4c:    4770        pG      BX       lr
    CLK_GetHXTFreq
        0x00000d4e:    485a        ZH      LDR      r0,[pc,#360] ; [0xeb8] = 0x50000200
        0x00000d50:    6800        .h      LDR      r0,[r0,#0]
        0x00000d52:    07c0        ..      LSLS     r0,r0,#31
        0x00000d54:    d000        ..      BEQ      0xd58 ; CLK_GetHXTFreq + 10
        0x00000d56:    485a        ZH      LDR      r0,[pc,#360] ; [0xec0] = 0xb71b00
        0x00000d58:    4770        pG      BX       lr
    CLK_GetLXTFreq
        0x00000d5a:    4857        WH      LDR      r0,[pc,#348] ; [0xeb8] = 0x50000200
        0x00000d5c:    6800        .h      LDR      r0,[r0,#0]
        0x00000d5e:    0780        ..      LSLS     r0,r0,#30
        0x00000d60:    d502        ..      BPL      0xd68 ; CLK_GetLXTFreq + 14
        0x00000d62:    2001        .       MOVS     r0,#1
        0x00000d64:    03c0        ..      LSLS     r0,r0,#15
        0x00000d66:    4770        pG      BX       lr
        0x00000d68:    2000        .       MOVS     r0,#0
        0x00000d6a:    4770        pG      BX       lr
    CLK_GetHCLKFreq
        0x00000d6c:    b510        ..      PUSH     {r4,lr}
        0x00000d6e:    f000fc4f    ..O.    BL       SystemCoreClockUpdate ; 0x1610
        0x00000d72:    4854        TH      LDR      r0,[pc,#336] ; [0xec4] = 0x20000280
        0x00000d74:    6800        .h      LDR      r0,[r0,#0]
        0x00000d76:    bd10        ..      POP      {r4,pc}
    CLK_GetCPUFreq
        0x00000d78:    b510        ..      PUSH     {r4,lr}
        0x00000d7a:    f000fc49    ..I.    BL       SystemCoreClockUpdate ; 0x1610
        0x00000d7e:    4851        QH      LDR      r0,[pc,#324] ; [0xec4] = 0x20000280
        0x00000d80:    6800        .h      LDR      r0,[r0,#0]
        0x00000d82:    bd10        ..      POP      {r4,pc}
    CLK_SetHCLK
        0x00000d84:    4a4c        LJ      LDR      r2,[pc,#304] ; [0xeb8] = 0x50000200
        0x00000d86:    6913        .i      LDR      r3,[r2,#0x10]
        0x00000d88:    08db        ..      LSRS     r3,r3,#3
        0x00000d8a:    00db        ..      LSLS     r3,r3,#3
        0x00000d8c:    4303        .C      ORRS     r3,r3,r0
        0x00000d8e:    6113        .a      STR      r3,[r2,#0x10]
        0x00000d90:    6990        .i      LDR      r0,[r2,#0x18]
        0x00000d92:    0900        ..      LSRS     r0,r0,#4
        0x00000d94:    0100        ..      LSLS     r0,r0,#4
        0x00000d96:    4308        .C      ORRS     r0,r0,r1
        0x00000d98:    6190        .a      STR      r0,[r2,#0x18]
        0x00000d9a:    4770        pG      BX       lr
    CLK_SetModuleClock
        0x00000d9c:    b570        p.      PUSH     {r4-r6,lr}
        0x00000d9e:    0e43        C.      LSRS     r3,r0,#25
        0x00000da0:    071b        ..      LSLS     r3,r3,#28
        0x00000da2:    d00e        ..      BEQ      0xdc2 ; CLK_SetModuleClock + 38
        0x00000da4:    0043        C.      LSLS     r3,r0,#1
        0x00000da6:    4c44        DL      LDR      r4,[pc,#272] ; [0xeb8] = 0x50000200
        0x00000da8:    0f9b        ..      LSRS     r3,r3,#30
        0x00000daa:    009b        ..      LSLS     r3,r3,#2
        0x00000dac:    3410        .4      ADDS     r4,r4,#0x10
        0x00000dae:    191b        ..      ADDS     r3,r3,r4
        0x00000db0:    681c        .h      LDR      r4,[r3,#0]
        0x00000db2:    00c5        ..      LSLS     r5,r0,#3
        0x00000db4:    0f2d        -.      LSRS     r5,r5,#28
        0x00000db6:    01c6        ..      LSLS     r6,r0,#7
        0x00000db8:    0ef6        ..      LSRS     r6,r6,#27
        0x00000dba:    40b5        .@      LSLS     r5,r5,r6
        0x00000dbc:    43ac        .C      BICS     r4,r4,r5
        0x00000dbe:    430c        .C      ORRS     r4,r4,r1
        0x00000dc0:    601c        .`      STR      r4,[r3,#0]
        0x00000dc2:    0a83        ..      LSRS     r3,r0,#10
        0x00000dc4:    0619        ..      LSLS     r1,r3,#24
        0x00000dc6:    0e09        ..      LSRS     r1,r1,#24
        0x00000dc8:    d00d        ..      BEQ      0xde6 ; CLK_SetModuleClock + 74
        0x00000dca:    0301        ..      LSLS     r1,r0,#12
        0x00000dcc:    4c3a        :L      LDR      r4,[pc,#232] ; [0xeb8] = 0x50000200
        0x00000dce:    0f89        ..      LSRS     r1,r1,#30
        0x00000dd0:    0089        ..      LSLS     r1,r1,#2
        0x00000dd2:    3418        .4      ADDS     r4,r4,#0x18
        0x00000dd4:    1909        ..      ADDS     r1,r1,r4
        0x00000dd6:    680c        .h      LDR      r4,[r1,#0]
        0x00000dd8:    0580        ..      LSLS     r0,r0,#22
        0x00000dda:    b2db        ..      UXTB     r3,r3
        0x00000ddc:    0ec0        ..      LSRS     r0,r0,#27
        0x00000dde:    4083        .@      LSLS     r3,r3,r0
        0x00000de0:    439c        .C      BICS     r4,r4,r3
        0x00000de2:    4314        .C      ORRS     r4,r4,r2
        0x00000de4:    600c        .`      STR      r4,[r1,#0]
        0x00000de6:    bd70        p.      POP      {r4-r6,pc}
    CLK_SetSysTickClockSrc
        0x00000de8:    4a33        3J      LDR      r2,[pc,#204] ; [0xeb8] = 0x50000200
        0x00000dea:    6911        .i      LDR      r1,[r2,#0x10]
        0x00000dec:    2338        8#      MOVS     r3,#0x38
        0x00000dee:    4399        .C      BICS     r1,r1,r3
        0x00000df0:    4301        .C      ORRS     r1,r1,r0
        0x00000df2:    6111        .a      STR      r1,[r2,#0x10]
        0x00000df4:    4770        pG      BX       lr
    CLK_EnableSysTick
        0x00000df6:    b570        p.      PUSH     {r4-r6,lr}
        0x00000df8:    4a33        3J      LDR      r2,[pc,#204] ; [0xec8] = 0xe000e000
        0x00000dfa:    2300        .#      MOVS     r3,#0
        0x00000dfc:    6113        .a      STR      r3,[r2,#0x10]
        0x00000dfe:    2404        .$      MOVS     r4,#4
        0x00000e00:    2808        .(      CMP      r0,#8
        0x00000e02:    d00f        ..      BEQ      0xe24 ; CLK_EnableSysTick + 46
        0x00000e04:    6915        .i      LDR      r5,[r2,#0x10]
        0x00000e06:    43a5        .C      BICS     r5,r5,r4
        0x00000e08:    6115        .a      STR      r5,[r2,#0x10]
        0x00000e0a:    4d2b        +M      LDR      r5,[pc,#172] ; [0xeb8] = 0x50000200
        0x00000e0c:    692c        ,i      LDR      r4,[r5,#0x10]
        0x00000e0e:    2638        8&      MOVS     r6,#0x38
        0x00000e10:    43b4        .C      BICS     r4,r4,r6
        0x00000e12:    4304        .C      ORRS     r4,r4,r0
        0x00000e14:    612c        ,a      STR      r4,[r5,#0x10]
        0x00000e16:    6151        Qa      STR      r1,[r2,#0x14]
        0x00000e18:    6193        .a      STR      r3,[r2,#0x18]
        0x00000e1a:    6910        .i      LDR      r0,[r2,#0x10]
        0x00000e1c:    2101        .!      MOVS     r1,#1
        0x00000e1e:    4308        .C      ORRS     r0,r0,r1
        0x00000e20:    6110        .a      STR      r0,[r2,#0x10]
        0x00000e22:    bd70        p.      POP      {r4-r6,pc}
        0x00000e24:    6910        .i      LDR      r0,[r2,#0x10]
        0x00000e26:    4320         C      ORRS     r0,r0,r4
        0x00000e28:    6110        .a      STR      r0,[r2,#0x10]
        0x00000e2a:    e7f4        ..      B        0xe16 ; CLK_EnableSysTick + 32
    CLK_DisableSysTick
        0x00000e2c:    4926        &I      LDR      r1,[pc,#152] ; [0xec8] = 0xe000e000
        0x00000e2e:    2000        .       MOVS     r0,#0
        0x00000e30:    6108        .a      STR      r0,[r1,#0x10]
        0x00000e32:    4770        pG      BX       lr
    CLK_EnableXtalRC
        0x00000e34:    4920         I      LDR      r1,[pc,#128] ; [0xeb8] = 0x50000200
        0x00000e36:    680a        .h      LDR      r2,[r1,#0]
        0x00000e38:    4302        .C      ORRS     r2,r2,r0
        0x00000e3a:    600a        .`      STR      r2,[r1,#0]
        0x00000e3c:    4770        pG      BX       lr
    CLK_DisableXtalRC
        0x00000e3e:    491e        .I      LDR      r1,[pc,#120] ; [0xeb8] = 0x50000200
        0x00000e40:    680a        .h      LDR      r2,[r1,#0]
        0x00000e42:    4382        .C      BICS     r2,r2,r0
        0x00000e44:    600a        .`      STR      r2,[r1,#0]
        0x00000e46:    4770        pG      BX       lr
    CLK_EnableModuleClock
        0x00000e48:    0fc1        ..      LSRS     r1,r0,#31
        0x00000e4a:    008a        ..      LSLS     r2,r1,#2
        0x00000e4c:    491a        .I      LDR      r1,[pc,#104] ; [0xeb8] = 0x50000200
        0x00000e4e:    1851        Q.      ADDS     r1,r2,r1
        0x00000e50:    688a        .h      LDR      r2,[r1,#8]
        0x00000e52:    06c3        ..      LSLS     r3,r0,#27
        0x00000e54:    0edb        ..      LSRS     r3,r3,#27
        0x00000e56:    2001        .       MOVS     r0,#1
        0x00000e58:    4098        .@      LSLS     r0,r0,r3
        0x00000e5a:    4302        .C      ORRS     r2,r2,r0
        0x00000e5c:    608a        .`      STR      r2,[r1,#8]
        0x00000e5e:    4770        pG      BX       lr
    CLK_DisableModuleClock
        0x00000e60:    0fc1        ..      LSRS     r1,r0,#31
        0x00000e62:    008a        ..      LSLS     r2,r1,#2
        0x00000e64:    4914        .I      LDR      r1,[pc,#80] ; [0xeb8] = 0x50000200
        0x00000e66:    1851        Q.      ADDS     r1,r2,r1
        0x00000e68:    688a        .h      LDR      r2,[r1,#8]
        0x00000e6a:    06c3        ..      LSLS     r3,r0,#27
        0x00000e6c:    0edb        ..      LSRS     r3,r3,#27
        0x00000e6e:    2001        .       MOVS     r0,#1
        0x00000e70:    4098        .@      LSLS     r0,r0,r3
        0x00000e72:    4382        .C      BICS     r2,r2,r0
        0x00000e74:    608a        .`      STR      r2,[r1,#8]
        0x00000e76:    4770        pG      BX       lr
    CLK_SysTickDelay
        0x00000e78:    4914        .I      LDR      r1,[pc,#80] ; [0xecc] = 0x20000284
        0x00000e7a:    6809        .h      LDR      r1,[r1,#0]
        0x00000e7c:    4348        HC      MULS     r0,r1,r0
        0x00000e7e:    4912        .I      LDR      r1,[pc,#72] ; [0xec8] = 0xe000e000
        0x00000e80:    6148        Ha      STR      r0,[r1,#0x14]
        0x00000e82:    2200        ."      MOVS     r2,#0
        0x00000e84:    618a        .a      STR      r2,[r1,#0x18]
        0x00000e86:    2005        .       MOVS     r0,#5
        0x00000e88:    6108        .a      STR      r0,[r1,#0x10]
        0x00000e8a:    6908        .i      LDR      r0,[r1,#0x10]
        0x00000e8c:    03c0        ..      LSLS     r0,r0,#15
        0x00000e8e:    d5fc        ..      BPL      0xe8a ; CLK_SysTickDelay + 18
        0x00000e90:    610a        .a      STR      r2,[r1,#0x10]
        0x00000e92:    4770        pG      BX       lr
    CLK_WaitClockReady
        0x00000e94:    b510        ..      PUSH     {r4,lr}
        0x00000e96:    211b        .!      MOVS     r1,#0x1b
        0x00000e98:    4604        .F      MOV      r4,r0
        0x00000e9a:    0309        ..      LSLS     r1,r1,#12
        0x00000e9c:    4b06        .K      LDR      r3,[pc,#24] ; [0xeb8] = 0x50000200
        0x00000e9e:    e005        ..      B        0xeac ; CLK_WaitClockReady + 24
        0x00000ea0:    460a        .F      MOV      r2,r1
        0x00000ea2:    1e49        I.      SUBS     r1,r1,#1
        0x00000ea4:    2a00        .*      CMP      r2,#0
        0x00000ea6:    dc01        ..      BGT      0xeac ; CLK_WaitClockReady + 24
        0x00000ea8:    2000        .       MOVS     r0,#0
        0x00000eaa:    bd10        ..      POP      {r4,pc}
        0x00000eac:    68da        .h      LDR      r2,[r3,#0xc]
        0x00000eae:    4620         F      MOV      r0,r4
        0x00000eb0:    4390        .C      BICS     r0,r0,r2
        0x00000eb2:    d1f5        ..      BNE      0xea0 ; CLK_WaitClockReady + 12
        0x00000eb4:    2001        .       MOVS     r0,#1
        0x00000eb6:    bd10        ..      POP      {r4,pc}
    $d
        0x00000eb8:    50000200    ...P    DCD    1342177792
        0x00000ebc:    e000ed00    ....    DCD    3758157056
        0x00000ec0:    00b71b00    ....    DCD    12000000
        0x00000ec4:    20000280    ...     DCD    536871552
        0x00000ec8:    e000e000    ....    DCD    3758153728
        0x00000ecc:    20000284    ...     DCD    536871556
    $t
    .text
    GPIO_SetMode
        0x00000ed0:    b5f0        ..      PUSH     {r4-r7,lr}
        0x00000ed2:    2300        .#      MOVS     r3,#0
        0x00000ed4:    2701        .'      MOVS     r7,#1
        0x00000ed6:    463c        <F      MOV      r4,r7
        0x00000ed8:    409c        .@      LSLS     r4,r4,r3
        0x00000eda:    420c        .B      TST      r4,r1
        0x00000edc:    d008        ..      BEQ      0xef0 ; GPIO_SetMode + 32
        0x00000ede:    6805        .h      LDR      r5,[r0,#0]
        0x00000ee0:    005c        \.      LSLS     r4,r3,#1
        0x00000ee2:    2603        .&      MOVS     r6,#3
        0x00000ee4:    40a6        .@      LSLS     r6,r6,r4
        0x00000ee6:    43b5        .C      BICS     r5,r5,r6
        0x00000ee8:    4616        .F      MOV      r6,r2
        0x00000eea:    40a6        .@      LSLS     r6,r6,r4
        0x00000eec:    4335        5C      ORRS     r5,r5,r6
        0x00000eee:    6005        .`      STR      r5,[r0,#0]
        0x00000ef0:    1c5b        [.      ADDS     r3,r3,#1
        0x00000ef2:    2b08        .+      CMP      r3,#8
        0x00000ef4:    d3ef        ..      BCC      0xed6 ; GPIO_SetMode + 6
        0x00000ef6:    bdf0        ..      POP      {r4-r7,pc}
    GPIO_EnableInt
        0x00000ef8:    b510        ..      PUSH     {r4,lr}
        0x00000efa:    6983        .i      LDR      r3,[r0,#0x18]
        0x00000efc:    0e14        ..      LSRS     r4,r2,#24
        0x00000efe:    408c        .@      LSLS     r4,r4,r1
        0x00000f00:    4323        #C      ORRS     r3,r3,r4
        0x00000f02:    6183        .a      STR      r3,[r0,#0x18]
        0x00000f04:    69c3        .i      LDR      r3,[r0,#0x1c]
        0x00000f06:    0212        ..      LSLS     r2,r2,#8
        0x00000f08:    0a12        ..      LSRS     r2,r2,#8
        0x00000f0a:    408a        .@      LSLS     r2,r2,r1
        0x00000f0c:    4313        .C      ORRS     r3,r3,r2
        0x00000f0e:    61c3        .a      STR      r3,[r0,#0x1c]
        0x00000f10:    bd10        ..      POP      {r4,pc}
    GPIO_DisableInt
        0x00000f12:    6982        .i      LDR      r2,[r0,#0x18]
        0x00000f14:    2301        .#      MOVS     r3,#1
        0x00000f16:    408b        .@      LSLS     r3,r3,r1
        0x00000f18:    439a        .C      BICS     r2,r2,r3
        0x00000f1a:    6182        .a      STR      r2,[r0,#0x18]
        0x00000f1c:    69c2        .i      LDR      r2,[r0,#0x1c]
        0x00000f1e:    4b02        .K      LDR      r3,[pc,#8] ; [0xf28] = 0x10001
        0x00000f20:    408b        .@      LSLS     r3,r3,r1
        0x00000f22:    439a        .C      BICS     r2,r2,r3
        0x00000f24:    61c2        .a      STR      r2,[r0,#0x1c]
        0x00000f26:    4770        pG      BX       lr
    $d
        0x00000f28:    00010001    ....    DCD    65537
    $t
    .text
    PWM_ConfigOutputChannel
        0x00000f2c:    b5ff        ..      PUSH     {r0-r7,lr}
        0x00000f2e:    48c0        .H      LDR      r0,[pc,#768] ; [0x1230] = 0x20000280
        0x00000f30:    b083        ..      SUB      sp,sp,#0xc
        0x00000f32:    6800        .h      LDR      r0,[r0,#0]
        0x00000f34:    461d        .F      MOV      r5,r3
        0x00000f36:    4611        .F      MOV      r1,r2
        0x00000f38:    9001        ..      STR      r0,[sp,#4]
        0x00000f3a:    f000fb91    ....    BL       __aeabi_uidiv ; 0x1660
        0x00000f3e:    2601        .&      MOVS     r6,#1
        0x00000f40:    4cbc        .L      LDR      r4,[pc,#752] ; [0x1234] = 0xffff
        0x00000f42:    27ff        .'      MOVS     r7,#0xff
        0x00000f44:    9000        ..      STR      r0,[sp,#0]
        0x00000f46:    4631        1F      MOV      r1,r6
        0x00000f48:    9800        ..      LDR      r0,[sp,#0]
        0x00000f4a:    f000fb89    ....    BL       __aeabi_uidiv ; 0x1660
        0x00000f4e:    2101        .!      MOVS     r1,#1
        0x00000f50:    0609        ..      LSLS     r1,r1,#24
        0x00000f52:    4288        .B      CMP      r0,r1
        0x00000f54:    d812        ..      BHI      0xf7c ; PWM_ConfigOutputChannel + 80
        0x00000f56:    1901        ..      ADDS     r1,r0,r4
        0x00000f58:    0209        ..      LSLS     r1,r1,#8
        0x00000f5a:    0e0f        ..      LSRS     r7,r1,#24
        0x00000f5c:    2f03        ./      CMP      r7,#3
        0x00000f5e:    d200        ..      BCS      0xf62 ; PWM_ConfigOutputChannel + 54
        0x00000f60:    2702        .'      MOVS     r7,#2
        0x00000f62:    4639        9F      MOV      r1,r7
        0x00000f64:    f000fb7c    ..|.    BL       __aeabi_uidiv ; 0x1660
        0x00000f68:    2101        .!      MOVS     r1,#1
        0x00000f6a:    0409        ..      LSLS     r1,r1,#16
        0x00000f6c:    4288        .B      CMP      r0,r1
        0x00000f6e:    d805        ..      BHI      0xf7c ; PWM_ConfigOutputChannel + 80
        0x00000f70:    2801        .(      CMP      r0,#1
        0x00000f72:    d001        ..      BEQ      0xf78 ; PWM_ConfigOutputChannel + 76
        0x00000f74:    b284        ..      UXTH     r4,r0
        0x00000f76:    e005        ..      B        0xf84 ; PWM_ConfigOutputChannel + 88
        0x00000f78:    2401        .$      MOVS     r4,#1
        0x00000f7a:    e003        ..      B        0xf84 ; PWM_ConfigOutputChannel + 88
        0x00000f7c:    0670        p.      LSLS     r0,r6,#25
        0x00000f7e:    0e06        ..      LSRS     r6,r0,#24
        0x00000f80:    2e11        ..      CMP      r6,#0x11
        0x00000f82:    d3e0        ..      BCC      0xf46 ; PWM_ConfigOutputChannel + 26
        0x00000f84:    4639        9F      MOV      r1,r7
        0x00000f86:    4371        qC      MULS     r1,r6,r1
        0x00000f88:    4361        aC      MULS     r1,r4,r1
        0x00000f8a:    9801        ..      LDR      r0,[sp,#4]
        0x00000f8c:    f000fb68    ..h.    BL       __aeabi_uidiv ; 0x1660
        0x00000f90:    1e7f        ..      SUBS     r7,r7,#1
        0x00000f92:    1e64        d.      SUBS     r4,r4,#1
        0x00000f94:    b2fb        ..      UXTB     r3,r7
        0x00000f96:    b2a4        ..      UXTH     r4,r4
        0x00000f98:    9000        ..      STR      r0,[sp,#0]
        0x00000f9a:    2e01        ..      CMP      r6,#1
        0x00000f9c:    d030        0.      BEQ      0x1000 ; PWM_ConfigOutputChannel + 212
        0x00000f9e:    2e02        ..      CMP      r6,#2
        0x00000fa0:    d030        0.      BEQ      0x1004 ; PWM_ConfigOutputChannel + 216
        0x00000fa2:    2e04        ..      CMP      r6,#4
        0x00000fa4:    d030        0.      BEQ      0x1008 ; PWM_ConfigOutputChannel + 220
        0x00000fa6:    2e08        ..      CMP      r6,#8
        0x00000fa8:    d030        0.      BEQ      0x100c ; PWM_ConfigOutputChannel + 224
        0x00000faa:    2103        .!      MOVS     r1,#3
        0x00000fac:    4aa2        .J      LDR      r2,[pc,#648] ; [0x1238] = 0x40040000
        0x00000fae:    6816        .h      LDR      r6,[r2,#0]
        0x00000fb0:    9804        ..      LDR      r0,[sp,#0x10]
        0x00000fb2:    27ff        .'      MOVS     r7,#0xff
        0x00000fb4:    0840        @.      LSRS     r0,r0,#1
        0x00000fb6:    00c0        ..      LSLS     r0,r0,#3
        0x00000fb8:    4087        .@      LSLS     r7,r7,r0
        0x00000fba:    43be        .C      BICS     r6,r6,r7
        0x00000fbc:    4083        .@      LSLS     r3,r3,r0
        0x00000fbe:    431e        .C      ORRS     r6,r6,r3
        0x00000fc0:    6016        .`      STR      r6,[r2,#0]
        0x00000fc2:    6853        Sh      LDR      r3,[r2,#4]
        0x00000fc4:    9804        ..      LDR      r0,[sp,#0x10]
        0x00000fc6:    2607        .&      MOVS     r6,#7
        0x00000fc8:    0080        ..      LSLS     r0,r0,#2
        0x00000fca:    4086        .@      LSLS     r6,r6,r0
        0x00000fcc:    43b3        .C      BICS     r3,r3,r6
        0x00000fce:    4081        .@      LSLS     r1,r1,r0
        0x00000fd0:    430b        .C      ORRS     r3,r3,r1
        0x00000fd2:    6053        S`      STR      r3,[r2,#4]
        0x00000fd4:    6891        .h      LDR      r1,[r2,#8]
        0x00000fd6:    2308        .#      MOVS     r3,#8
        0x00000fd8:    0049        I.      LSLS     r1,r1,#1
        0x00000fda:    0849        I.      LSRS     r1,r1,#1
        0x00000fdc:    4083        .@      LSLS     r3,r3,r0
        0x00000fde:    4319        .C      ORRS     r1,r1,r3
        0x00000fe0:    6091        .`      STR      r1,[r2,#8]
        0x00000fe2:    4611        .F      MOV      r1,r2
        0x00000fe4:    1846        F.      ADDS     r6,r0,r1
        0x00000fe6:    2d00        .-      CMP      r5,#0
        0x00000fe8:    d012        ..      BEQ      0x1010 ; PWM_ConfigOutputChannel + 228
        0x00000fea:    1c60        `.      ADDS     r0,r4,#1
        0x00000fec:    4368        hC      MULS     r0,r5,r0
        0x00000fee:    2164        d!      MOVS     r1,#0x64
        0x00000ff0:    f000fb36    ..6.    BL       __aeabi_uidiv ; 0x1660
        0x00000ff4:    1e40        @.      SUBS     r0,r0,#1
        0x00000ff6:    6270        pb      STR      r0,[r6,#0x24]
        0x00000ff8:    60f4        .`      STR      r4,[r6,#0xc]
        0x00000ffa:    9800        ..      LDR      r0,[sp,#0]
        0x00000ffc:    b007        ..      ADD      sp,sp,#0x1c
        0x00000ffe:    bdf0        ..      POP      {r4-r7,pc}
        0x00001000:    2104        .!      MOVS     r1,#4
        0x00001002:    e7d3        ..      B        0xfac ; PWM_ConfigOutputChannel + 128
        0x00001004:    2100        .!      MOVS     r1,#0
        0x00001006:    e7d1        ..      B        0xfac ; PWM_ConfigOutputChannel + 128
        0x00001008:    2101        .!      MOVS     r1,#1
        0x0000100a:    e7cf        ..      B        0xfac ; PWM_ConfigOutputChannel + 128
        0x0000100c:    2102        .!      MOVS     r1,#2
        0x0000100e:    e7cd        ..      B        0xfac ; PWM_ConfigOutputChannel + 128
        0x00001010:    2000        .       MOVS     r0,#0
        0x00001012:    e7f0        ..      B        0xff6 ; PWM_ConfigOutputChannel + 202
    PWM_Start
        0x00001014:    b530        0.      PUSH     {r4,r5,lr}
        0x00001016:    2200        ."      MOVS     r2,#0
        0x00001018:    4610        .F      MOV      r0,r2
        0x0000101a:    2401        .$      MOVS     r4,#1
        0x0000101c:    4623        #F      MOV      r3,r4
        0x0000101e:    4083        .@      LSLS     r3,r3,r0
        0x00001020:    420b        .B      TST      r3,r1
        0x00001022:    d003        ..      BEQ      0x102c ; PWM_Start + 24
        0x00001024:    0085        ..      LSLS     r5,r0,#2
        0x00001026:    4623        #F      MOV      r3,r4
        0x00001028:    40ab        .@      LSLS     r3,r3,r5
        0x0000102a:    431a        .C      ORRS     r2,r2,r3
        0x0000102c:    1c40        @.      ADDS     r0,r0,#1
        0x0000102e:    2806        .(      CMP      r0,#6
        0x00001030:    d3f4        ..      BCC      0x101c ; PWM_Start + 8
        0x00001032:    4981        .I      LDR      r1,[pc,#516] ; [0x1238] = 0x40040000
        0x00001034:    6888        .h      LDR      r0,[r1,#8]
        0x00001036:    4310        .C      ORRS     r0,r0,r2
        0x00001038:    6088        .`      STR      r0,[r1,#8]
        0x0000103a:    bd30        0.      POP      {r4,r5,pc}
    PWM_Stop
        0x0000103c:    b530        0.      PUSH     {r4,r5,lr}
        0x0000103e:    2000        .       MOVS     r0,#0
        0x00001040:    4c7d        }L      LDR      r4,[pc,#500] ; [0x1238] = 0x40040000
        0x00001042:    2501        .%      MOVS     r5,#1
        0x00001044:    4603        .F      MOV      r3,r0
        0x00001046:    462a        *F      MOV      r2,r5
        0x00001048:    4082        .@      LSLS     r2,r2,r0
        0x0000104a:    420a        .B      TST      r2,r1
        0x0000104c:    d002        ..      BEQ      0x1054 ; PWM_Stop + 24
        0x0000104e:    0082        ..      LSLS     r2,r0,#2
        0x00001050:    1912        ..      ADDS     r2,r2,r4
        0x00001052:    60d3        .`      STR      r3,[r2,#0xc]
        0x00001054:    1c40        @.      ADDS     r0,r0,#1
        0x00001056:    2806        .(      CMP      r0,#6
        0x00001058:    d3f5        ..      BCC      0x1046 ; PWM_Stop + 10
        0x0000105a:    bd30        0.      POP      {r4,r5,pc}
    PWM_ForceStop
        0x0000105c:    b530        0.      PUSH     {r4,r5,lr}
        0x0000105e:    2200        ."      MOVS     r2,#0
        0x00001060:    4610        .F      MOV      r0,r2
        0x00001062:    2401        .$      MOVS     r4,#1
        0x00001064:    4623        #F      MOV      r3,r4
        0x00001066:    4083        .@      LSLS     r3,r3,r0
        0x00001068:    420b        .B      TST      r3,r1
        0x0000106a:    d003        ..      BEQ      0x1074 ; PWM_ForceStop + 24
        0x0000106c:    0085        ..      LSLS     r5,r0,#2
        0x0000106e:    4623        #F      MOV      r3,r4
        0x00001070:    40ab        .@      LSLS     r3,r3,r5
        0x00001072:    431a        .C      ORRS     r2,r2,r3
        0x00001074:    1c40        @.      ADDS     r0,r0,#1
        0x00001076:    2806        .(      CMP      r0,#6
        0x00001078:    d3f4        ..      BCC      0x1064 ; PWM_ForceStop + 8
        0x0000107a:    496f        oI      LDR      r1,[pc,#444] ; [0x1238] = 0x40040000
        0x0000107c:    6888        .h      LDR      r0,[r1,#8]
        0x0000107e:    4390        .C      BICS     r0,r0,r2
        0x00001080:    6088        .`      STR      r0,[r1,#8]
        0x00001082:    bd30        0.      POP      {r4,r5,pc}
    PWM_EnableADCTrigger
        0x00001084:    b510        ..      PUSH     {r4,lr}
        0x00001086:    4c6c        lL      LDR      r4,[pc,#432] ; [0x1238] = 0x40040000
        0x00001088:    230f        .#      MOVS     r3,#0xf
        0x0000108a:    3440        @4      ADDS     r4,r4,#0x40
        0x0000108c:    00c8        ..      LSLS     r0,r1,#3
        0x0000108e:    2904        .)      CMP      r1,#4
        0x00001090:    d206        ..      BCS      0x10a0 ; PWM_EnableADCTrigger + 28
        0x00001092:    6aa1        .j      LDR      r1,[r4,#0x28]
        0x00001094:    4083        .@      LSLS     r3,r3,r0
        0x00001096:    4399        .C      BICS     r1,r1,r3
        0x00001098:    4082        .@      LSLS     r2,r2,r0
        0x0000109a:    4311        .C      ORRS     r1,r1,r2
        0x0000109c:    62a1        .b      STR      r1,[r4,#0x28]
        0x0000109e:    bd10        ..      POP      {r4,pc}
        0x000010a0:    3820         8      SUBS     r0,r0,#0x20
        0x000010a2:    6ae1        .j      LDR      r1,[r4,#0x2c]
        0x000010a4:    4083        .@      LSLS     r3,r3,r0
        0x000010a6:    4399        .C      BICS     r1,r1,r3
        0x000010a8:    4082        .@      LSLS     r2,r2,r0
        0x000010aa:    4311        .C      ORRS     r1,r1,r2
        0x000010ac:    62e1        .b      STR      r1,[r4,#0x2c]
        0x000010ae:    bd10        ..      POP      {r4,pc}
    PWM_DisableADCTrigger
        0x000010b0:    4a61        aJ      LDR      r2,[pc,#388] ; [0x1238] = 0x40040000
        0x000010b2:    00c8        ..      LSLS     r0,r1,#3
        0x000010b4:    3240        @2      ADDS     r2,r2,#0x40
        0x000010b6:    230f        .#      MOVS     r3,#0xf
        0x000010b8:    2904        .)      CMP      r1,#4
        0x000010ba:    d204        ..      BCS      0x10c6 ; PWM_DisableADCTrigger + 22
        0x000010bc:    6a91        .j      LDR      r1,[r2,#0x28]
        0x000010be:    4083        .@      LSLS     r3,r3,r0
        0x000010c0:    4399        .C      BICS     r1,r1,r3
        0x000010c2:    6291        .b      STR      r1,[r2,#0x28]
        0x000010c4:    4770        pG      BX       lr
        0x000010c6:    3820         8      SUBS     r0,r0,#0x20
        0x000010c8:    4083        .@      LSLS     r3,r3,r0
        0x000010ca:    6ad0        .j      LDR      r0,[r2,#0x2c]
        0x000010cc:    4398        .C      BICS     r0,r0,r3
        0x000010ce:    62d0        .b      STR      r0,[r2,#0x2c]
        0x000010d0:    4770        pG      BX       lr
    PWM_ClearADCTriggerFlag
        0x000010d2:    4b59        YK      LDR      r3,[pc,#356] ; [0x1238] = 0x40040000
        0x000010d4:    00c8        ..      LSLS     r0,r1,#3
        0x000010d6:    3340        @3      ADDS     r3,r3,#0x40
        0x000010d8:    2904        .)      CMP      r1,#4
        0x000010da:    d204        ..      BCS      0x10e6 ; PWM_ClearADCTriggerFlag + 20
        0x000010dc:    6b19        .k      LDR      r1,[r3,#0x30]
        0x000010de:    4082        .@      LSLS     r2,r2,r0
        0x000010e0:    4311        .C      ORRS     r1,r1,r2
        0x000010e2:    6319        .c      STR      r1,[r3,#0x30]
        0x000010e4:    4770        pG      BX       lr
        0x000010e6:    3820         8      SUBS     r0,r0,#0x20
        0x000010e8:    4082        .@      LSLS     r2,r2,r0
        0x000010ea:    6b58        Xk      LDR      r0,[r3,#0x34]
        0x000010ec:    4302        .C      ORRS     r2,r2,r0
        0x000010ee:    635a        Zc      STR      r2,[r3,#0x34]
        0x000010f0:    4770        pG      BX       lr
    PWM_GetADCTriggerFlag
        0x000010f2:    4851        QH      LDR      r0,[pc,#324] ; [0x1238] = 0x40040000
        0x000010f4:    00ca        ..      LSLS     r2,r1,#3
        0x000010f6:    3040        @0      ADDS     r0,r0,#0x40
        0x000010f8:    2904        .)      CMP      r1,#4
        0x000010fa:    d201        ..      BCS      0x1100 ; PWM_GetADCTriggerFlag + 14
        0x000010fc:    6b00        .k      LDR      r0,[r0,#0x30]
        0x000010fe:    e001        ..      B        0x1104 ; PWM_GetADCTriggerFlag + 18
        0x00001100:    6b40        @k      LDR      r0,[r0,#0x34]
        0x00001102:    3a20         :      SUBS     r2,r2,#0x20
        0x00001104:    40d0        .@      LSRS     r0,r0,r2
        0x00001106:    0700        ..      LSLS     r0,r0,#28
        0x00001108:    0f00        ..      LSRS     r0,r0,#28
        0x0000110a:    4770        pG      BX       lr
    PWM_EnableFaultBrake
        0x0000110c:    0610        ..      LSLS     r0,r2,#24
        0x0000110e:    494a        JI      LDR      r1,[pc,#296] ; [0x1238] = 0x40040000
        0x00001110:    4318        .C      ORRS     r0,r0,r3
        0x00001112:    3140        @1      ADDS     r1,r1,#0x40
        0x00001114:    6208        .b      STR      r0,[r1,#0x20]
        0x00001116:    4770        pG      BX       lr
    PWM_ClearFaultBrakeFlag
        0x00001118:    4947        GI      LDR      r1,[pc,#284] ; [0x1238] = 0x40040000
        0x0000111a:    2080        .       MOVS     r0,#0x80
        0x0000111c:    3140        @1      ADDS     r1,r1,#0x40
        0x0000111e:    6208        .b      STR      r0,[r1,#0x20]
        0x00001120:    4770        pG      BX       lr
    PWM_EnableOutput
        0x00001122:    4845        EH      LDR      r0,[pc,#276] ; [0x1238] = 0x40040000
        0x00001124:    3040        @0      ADDS     r0,r0,#0x40
        0x00001126:    69c2        .i      LDR      r2,[r0,#0x1c]
        0x00001128:    430a        .C      ORRS     r2,r2,r1
        0x0000112a:    61c2        .a      STR      r2,[r0,#0x1c]
        0x0000112c:    4770        pG      BX       lr
    PWM_DisableOutput
        0x0000112e:    4842        BH      LDR      r0,[pc,#264] ; [0x1238] = 0x40040000
        0x00001130:    3040        @0      ADDS     r0,r0,#0x40
        0x00001132:    69c2        .i      LDR      r2,[r0,#0x1c]
        0x00001134:    438a        .C      BICS     r2,r2,r1
        0x00001136:    61c2        .a      STR      r2,[r0,#0x1c]
        0x00001138:    4770        pG      BX       lr
    PWM_EnableDeadZone
        0x0000113a:    b530        0.      PUSH     {r4,r5,lr}
        0x0000113c:    4c3e        >L      LDR      r4,[pc,#248] ; [0x1238] = 0x40040000
        0x0000113e:    0848        H.      LSRS     r0,r1,#1
        0x00001140:    3440        @4      ADDS     r4,r4,#0x40
        0x00001142:    6a63        cj      LDR      r3,[r4,#0x24]
        0x00001144:    00c1        ..      LSLS     r1,r0,#3
        0x00001146:    25ff        .%      MOVS     r5,#0xff
        0x00001148:    408d        .@      LSLS     r5,r5,r1
        0x0000114a:    43ab        .C      BICS     r3,r3,r5
        0x0000114c:    408a        .@      LSLS     r2,r2,r1
        0x0000114e:    4313        .C      ORRS     r3,r3,r2
        0x00001150:    6263        cb      STR      r3,[r4,#0x24]
        0x00001152:    0323        #.      LSLS     r3,r4,#12
        0x00001154:    689a        .h      LDR      r2,[r3,#8]
        0x00001156:    0199        ..      LSLS     r1,r3,#6
        0x00001158:    4081        .@      LSLS     r1,r1,r0
        0x0000115a:    430a        .C      ORRS     r2,r2,r1
        0x0000115c:    609a        .`      STR      r2,[r3,#8]
        0x0000115e:    bd30        0.      POP      {r4,r5,pc}
    PWM_DisableDeadZone
        0x00001160:    0848        H.      LSRS     r0,r1,#1
        0x00001162:    4935        5I      LDR      r1,[pc,#212] ; [0x1238] = 0x40040000
        0x00001164:    688a        .h      LDR      r2,[r1,#8]
        0x00001166:    018b        ..      LSLS     r3,r1,#6
        0x00001168:    4083        .@      LSLS     r3,r3,r0
        0x0000116a:    439a        .C      BICS     r2,r2,r3
        0x0000116c:    608a        .`      STR      r2,[r1,#8]
        0x0000116e:    4770        pG      BX       lr
    PWM_EnableDutyInt
        0x00001170:    4831        1H      LDR      r0,[pc,#196] ; [0x1238] = 0x40040000
        0x00001172:    3040        @0      ADDS     r0,r0,#0x40
        0x00001174:    6942        Bi      LDR      r2,[r0,#0x14]
        0x00001176:    1583        ..      ASRS     r3,r0,#22
        0x00001178:    408b        .@      LSLS     r3,r3,r1
        0x0000117a:    431a        .C      ORRS     r2,r2,r3
        0x0000117c:    6142        Ba      STR      r2,[r0,#0x14]
        0x0000117e:    4770        pG      BX       lr
    PWM_DisableDutyInt
        0x00001180:    482d        -H      LDR      r0,[pc,#180] ; [0x1238] = 0x40040000
        0x00001182:    3040        @0      ADDS     r0,r0,#0x40
        0x00001184:    6942        Bi      LDR      r2,[r0,#0x14]
        0x00001186:    1583        ..      ASRS     r3,r0,#22
        0x00001188:    408b        .@      LSLS     r3,r3,r1
        0x0000118a:    439a        .C      BICS     r2,r2,r3
        0x0000118c:    6142        Ba      STR      r2,[r0,#0x14]
        0x0000118e:    4770        pG      BX       lr
    PWM_ClearDutyIntFlag
        0x00001190:    20ff        .       MOVS     r0,#0xff
        0x00001192:    3001        .0      ADDS     r0,#1
        0x00001194:    4088        .@      LSLS     r0,r0,r1
        0x00001196:    4928        (I      LDR      r1,[pc,#160] ; [0x1238] = 0x40040000
        0x00001198:    3140        @1      ADDS     r1,r1,#0x40
        0x0000119a:    6188        .a      STR      r0,[r1,#0x18]
        0x0000119c:    4770        pG      BX       lr
    PWM_GetDutyIntFlag
        0x0000119e:    4826        &H      LDR      r0,[pc,#152] ; [0x1238] = 0x40040000
        0x000011a0:    3040        @0      ADDS     r0,r0,#0x40
        0x000011a2:    6980        .i      LDR      r0,[r0,#0x18]
        0x000011a4:    22ff        ."      MOVS     r2,#0xff
        0x000011a6:    3201        .2      ADDS     r2,#1
        0x000011a8:    408a        .@      LSLS     r2,r2,r1
        0x000011aa:    4010        .@      ANDS     r0,r0,r2
        0x000011ac:    d000        ..      BEQ      0x11b0 ; PWM_GetDutyIntFlag + 18
        0x000011ae:    2001        .       MOVS     r0,#1
        0x000011b0:    4770        pG      BX       lr
    PWM_EnableFaultBrakeInt
        0x000011b2:    4821        !H      LDR      r0,[pc,#132] ; [0x1238] = 0x40040000
        0x000011b4:    3040        @0      ADDS     r0,r0,#0x40
        0x000011b6:    6941        Ai      LDR      r1,[r0,#0x14]
        0x000011b8:    2201        ."      MOVS     r2,#1
        0x000011ba:    0412        ..      LSLS     r2,r2,#16
        0x000011bc:    4311        .C      ORRS     r1,r1,r2
        0x000011be:    6141        Aa      STR      r1,[r0,#0x14]
        0x000011c0:    4770        pG      BX       lr
    PWM_DisableFaultBrakeInt
        0x000011c2:    481d        .H      LDR      r0,[pc,#116] ; [0x1238] = 0x40040000
        0x000011c4:    3040        @0      ADDS     r0,r0,#0x40
        0x000011c6:    6941        Ai      LDR      r1,[r0,#0x14]
        0x000011c8:    2201        ."      MOVS     r2,#1
        0x000011ca:    0412        ..      LSLS     r2,r2,#16
        0x000011cc:    4391        .C      BICS     r1,r1,r2
        0x000011ce:    6141        Aa      STR      r1,[r0,#0x14]
        0x000011d0:    4770        pG      BX       lr
    PWM_ClearFaultBrakeIntFlag
        0x000011d2:    4819        .H      LDR      r0,[pc,#100] ; [0x1238] = 0x40040000
        0x000011d4:    3040        @0      ADDS     r0,r0,#0x40
        0x000011d6:    6181        .a      STR      r1,[r0,#0x18]
        0x000011d8:    4770        pG      BX       lr
    PWM_GetFaultBrakeIntFlag
        0x000011da:    4817        .H      LDR      r0,[pc,#92] ; [0x1238] = 0x40040000
        0x000011dc:    3040        @0      ADDS     r0,r0,#0x40
        0x000011de:    6980        .i      LDR      r0,[r0,#0x18]
        0x000011e0:    4008        .@      ANDS     r0,r0,r1
        0x000011e2:    d000        ..      BEQ      0x11e6 ; PWM_GetFaultBrakeIntFlag + 12
        0x000011e4:    2001        .       MOVS     r0,#1
        0x000011e6:    4770        pG      BX       lr
    PWM_EnablePeriodInt
        0x000011e8:    b510        ..      PUSH     {r4,lr}
        0x000011ea:    4c13        .L      LDR      r4,[pc,#76] ; [0x1238] = 0x40040000
        0x000011ec:    3440        @4      ADDS     r4,r4,#0x40
        0x000011ee:    6960        `i      LDR      r0,[r4,#0x14]
        0x000011f0:    2301        .#      MOVS     r3,#1
        0x000011f2:    045b        [.      LSLS     r3,r3,#17
        0x000011f4:    4398        .C      BICS     r0,r0,r3
        0x000011f6:    2301        .#      MOVS     r3,#1
        0x000011f8:    408b        .@      LSLS     r3,r3,r1
        0x000011fa:    4318        .C      ORRS     r0,r0,r3
        0x000011fc:    4310        .C      ORRS     r0,r0,r2
        0x000011fe:    6160        `a      STR      r0,[r4,#0x14]
        0x00001200:    bd10        ..      POP      {r4,pc}
    PWM_DisablePeriodInt
        0x00001202:    480d        .H      LDR      r0,[pc,#52] ; [0x1238] = 0x40040000
        0x00001204:    3040        @0      ADDS     r0,r0,#0x40
        0x00001206:    6942        Bi      LDR      r2,[r0,#0x14]
        0x00001208:    2301        .#      MOVS     r3,#1
        0x0000120a:    408b        .@      LSLS     r3,r3,r1
        0x0000120c:    439a        .C      BICS     r2,r2,r3
        0x0000120e:    6142        Ba      STR      r2,[r0,#0x14]
        0x00001210:    4770        pG      BX       lr
    PWM_ClearPeriodIntFlag
        0x00001212:    2001        .       MOVS     r0,#1
        0x00001214:    4088        .@      LSLS     r0,r0,r1
        0x00001216:    4908        .I      LDR      r1,[pc,#32] ; [0x1238] = 0x40040000
        0x00001218:    3140        @1      ADDS     r1,r1,#0x40
        0x0000121a:    6188        .a      STR      r0,[r1,#0x18]
        0x0000121c:    4770        pG      BX       lr
    PWM_GetPeriodIntFlag
        0x0000121e:    4806        .H      LDR      r0,[pc,#24] ; [0x1238] = 0x40040000
        0x00001220:    3040        @0      ADDS     r0,r0,#0x40
        0x00001222:    6980        .i      LDR      r0,[r0,#0x18]
        0x00001224:    2201        ."      MOVS     r2,#1
        0x00001226:    408a        .@      LSLS     r2,r2,r1
        0x00001228:    4010        .@      ANDS     r0,r0,r2
        0x0000122a:    d000        ..      BEQ      0x122e ; PWM_GetPeriodIntFlag + 16
        0x0000122c:    2001        .       MOVS     r0,#1
        0x0000122e:    4770        pG      BX       lr
    $d
        0x00001230:    20000280    ...     DCD    536871552
        0x00001234:    0000ffff    ....    DCD    65535
        0x00001238:    40040000    ...@    DCD    1074003968
    $t
    .text
    SPI_Open
        0x0000123c:    b5f8        ..      PUSH     {r3-r7,lr}
        0x0000123e:    9f06        ..      LDR      r7,[sp,#0x18]
        0x00001240:    4604        .F      MOV      r4,r0
        0x00001242:    2b20         +      CMP      r3,#0x20
        0x00001244:    d100        ..      BNE      0x1248 ; SPI_Open + 12
        0x00001246:    2300        .#      MOVS     r3,#0
        0x00001248:    00d8        ..      LSLS     r0,r3,#3
        0x0000124a:    4308        .C      ORRS     r0,r0,r1
        0x0000124c:    4310        .C      ORRS     r0,r0,r2
        0x0000124e:    6020         `      STR      r0,[r4,#0]
        0x00001250:    f7fffd8c    ....    BL       CLK_GetHCLKFreq ; 0xd6c
        0x00001254:    4d6b        kM      LDR      r5,[pc,#428] ; [0x1404] = 0xffff
        0x00001256:    4606        .F      MOV      r6,r0
        0x00001258:    68a1        .h      LDR      r1,[r4,#8]
        0x0000125a:    4628        (F      MOV      r0,r5
        0x0000125c:    2210        ."      MOVS     r2,#0x10
        0x0000125e:    4311        .C      ORRS     r1,r1,r2
        0x00001260:    60a1        .`      STR      r1,[r4,#8]
        0x00001262:    2f00        ./      CMP      r7,#0
        0x00001264:    d014        ..      BEQ      0x1290 ; SPI_Open + 84
        0x00001266:    4639        9F      MOV      r1,r7
        0x00001268:    4630        0F      MOV      r0,r6
        0x0000126a:    f000f9f9    ....    BL       __aeabi_uidiv ; 0x1660
        0x0000126e:    1c40        @.      ADDS     r0,r0,#1
        0x00001270:    0840        @.      LSRS     r0,r0,#1
        0x00001272:    1e40        @.      SUBS     r0,r0,#1
        0x00001274:    42a8        .B      CMP      r0,r5
        0x00001276:    d900        ..      BLS      0x127a ; SPI_Open + 62
        0x00001278:    4628        (F      MOV      r0,r5
        0x0000127a:    6861        ah      LDR      r1,[r4,#4]
        0x0000127c:    0c09        ..      LSRS     r1,r1,#16
        0x0000127e:    0409        ..      LSLS     r1,r1,#16
        0x00001280:    4301        .C      ORRS     r1,r1,r0
        0x00001282:    6061        a`      STR      r1,[r4,#4]
        0x00001284:    0041        A.      LSLS     r1,r0,#1
        0x00001286:    4630        0F      MOV      r0,r6
        0x00001288:    1c89        ..      ADDS     r1,r1,#2
        0x0000128a:    f000f9e9    ....    BL       __aeabi_uidiv ; 0x1660
        0x0000128e:    bdf8        ..      POP      {r3-r7,pc}
        0x00001290:    2100        .!      MOVS     r1,#0
        0x00001292:    e7f6        ..      B        0x1282 ; SPI_Open + 70
    SPI_Close
        0x00001294:    2005        .       MOVS     r0,#5
        0x00001296:    0700        ..      LSLS     r0,r0,#28
        0x00001298:    68c2        .h      LDR      r2,[r0,#0xc]
        0x0000129a:    2101        .!      MOVS     r1,#1
        0x0000129c:    0309        ..      LSLS     r1,r1,#12
        0x0000129e:    430a        .C      ORRS     r2,r2,r1
        0x000012a0:    60c2        .`      STR      r2,[r0,#0xc]
        0x000012a2:    68c2        .h      LDR      r2,[r0,#0xc]
        0x000012a4:    438a        .C      BICS     r2,r2,r1
        0x000012a6:    60c2        .`      STR      r2,[r0,#0xc]
        0x000012a8:    4770        pG      BX       lr
    SPI_ClearRxFIFO
        0x000012aa:    6c01        .l      LDR      r1,[r0,#0x40]
        0x000012ac:    2201        ."      MOVS     r2,#1
        0x000012ae:    4311        .C      ORRS     r1,r1,r2
        0x000012b0:    6401        .d      STR      r1,[r0,#0x40]
        0x000012b2:    4770        pG      BX       lr
    SPI_ClearTxFIFO
        0x000012b4:    6c01        .l      LDR      r1,[r0,#0x40]
        0x000012b6:    2202        ."      MOVS     r2,#2
        0x000012b8:    4311        .C      ORRS     r1,r1,r2
        0x000012ba:    6401        .d      STR      r1,[r0,#0x40]
        0x000012bc:    4770        pG      BX       lr
    SPI_DisableAutoSS
        0x000012be:    6881        .h      LDR      r1,[r0,#8]
        0x000012c0:    2208        ."      MOVS     r2,#8
        0x000012c2:    4391        .C      BICS     r1,r1,r2
        0x000012c4:    6081        .`      STR      r1,[r0,#8]
        0x000012c6:    4770        pG      BX       lr
    SPI_EnableAutoSS
        0x000012c8:    b510        ..      PUSH     {r4,lr}
        0x000012ca:    6883        .h      LDR      r3,[r0,#8]
        0x000012cc:    2405        .$      MOVS     r4,#5
        0x000012ce:    43a3        .C      BICS     r3,r3,r4
        0x000012d0:    4311        .C      ORRS     r1,r1,r2
        0x000012d2:    430b        .C      ORRS     r3,r3,r1
        0x000012d4:    2108        .!      MOVS     r1,#8
        0x000012d6:    430b        .C      ORRS     r3,r3,r1
        0x000012d8:    6083        .`      STR      r3,[r0,#8]
        0x000012da:    bd10        ..      POP      {r4,pc}
    SPI_SetBusClock
        0x000012dc:    b570        p.      PUSH     {r4-r6,lr}
        0x000012de:    460d        .F      MOV      r5,r1
        0x000012e0:    4606        .F      MOV      r6,r0
        0x000012e2:    f7fffd43    ..C.    BL       CLK_GetHCLKFreq ; 0xd6c
        0x000012e6:    4604        .F      MOV      r4,r0
        0x000012e8:    42a5        .B      CMP      r5,r4
        0x000012ea:    d900        ..      BLS      0x12ee ; SPI_SetBusClock + 18
        0x000012ec:    4605        .F      MOV      r5,r0
        0x000012ee:    2d00        .-      CMP      r5,#0
        0x000012f0:    d014        ..      BEQ      0x131c ; SPI_SetBusClock + 64
        0x000012f2:    4629        )F      MOV      r1,r5
        0x000012f4:    4620         F      MOV      r0,r4
        0x000012f6:    f000f9b3    ....    BL       __aeabi_uidiv ; 0x1660
        0x000012fa:    1c40        @.      ADDS     r0,r0,#1
        0x000012fc:    0842        B.      LSRS     r2,r0,#1
        0x000012fe:    1e52        R.      SUBS     r2,r2,#1
        0x00001300:    2aff        .*      CMP      r2,#0xff
        0x00001302:    d900        ..      BLS      0x1306 ; SPI_SetBusClock + 42
        0x00001304:    22ff        ."      MOVS     r2,#0xff
        0x00001306:    6870        ph      LDR      r0,[r6,#4]
        0x00001308:    0a00        ..      LSRS     r0,r0,#8
        0x0000130a:    0200        ..      LSLS     r0,r0,#8
        0x0000130c:    4310        .C      ORRS     r0,r0,r2
        0x0000130e:    6070        p`      STR      r0,[r6,#4]
        0x00001310:    0051        Q.      LSLS     r1,r2,#1
        0x00001312:    4620         F      MOV      r0,r4
        0x00001314:    1c89        ..      ADDS     r1,r1,#2
        0x00001316:    f000f9a3    ....    BL       __aeabi_uidiv ; 0x1660
        0x0000131a:    bd70        p.      POP      {r4-r6,pc}
        0x0000131c:    2000        .       MOVS     r0,#0
        0x0000131e:    bd70        p.      POP      {r4-r6,pc}
    SPI_EnableFIFO
        0x00001320:    b510        ..      PUSH     {r4,lr}
        0x00001322:    6c03        .l      LDR      r3,[r0,#0x40]
        0x00001324:    2433        3$      MOVS     r4,#0x33
        0x00001326:    0624        $.      LSLS     r4,r4,#24
        0x00001328:    43a3        .C      BICS     r3,r3,r4
        0x0000132a:    0709        ..      LSLS     r1,r1,#28
        0x0000132c:    430b        .C      ORRS     r3,r3,r1
        0x0000132e:    0611        ..      LSLS     r1,r2,#24
        0x00001330:    430b        .C      ORRS     r3,r3,r1
        0x00001332:    6403        .d      STR      r3,[r0,#0x40]
        0x00001334:    6801        .h      LDR      r1,[r0,#0]
        0x00001336:    2201        ."      MOVS     r2,#1
        0x00001338:    0552        R.      LSLS     r2,r2,#21
        0x0000133a:    4311        .C      ORRS     r1,r1,r2
        0x0000133c:    6001        .`      STR      r1,[r0,#0]
        0x0000133e:    bd10        ..      POP      {r4,pc}
    SPI_DisableFIFO
        0x00001340:    6801        .h      LDR      r1,[r0,#0]
        0x00001342:    2201        ."      MOVS     r2,#1
        0x00001344:    0552        R.      LSLS     r2,r2,#21
        0x00001346:    4391        .C      BICS     r1,r1,r2
        0x00001348:    6001        .`      STR      r1,[r0,#0]
        0x0000134a:    4770        pG      BX       lr
    SPI_GetBusClock
        0x0000134c:    b510        ..      PUSH     {r4,lr}
        0x0000134e:    4604        .F      MOV      r4,r0
        0x00001350:    f7fffd0c    ....    BL       CLK_GetHCLKFreq ; 0xd6c
        0x00001354:    6861        ah      LDR      r1,[r4,#4]
        0x00001356:    0840        @.      LSRS     r0,r0,#1
        0x00001358:    b2c9        ..      UXTB     r1,r1
        0x0000135a:    1c49        I.      ADDS     r1,r1,#1
        0x0000135c:    f000f980    ....    BL       __aeabi_uidiv ; 0x1660
        0x00001360:    bd10        ..      POP      {r4,pc}
    SPI_EnableInt
        0x00001362:    07ca        ..      LSLS     r2,r1,#31
        0x00001364:    d004        ..      BEQ      0x1370 ; SPI_EnableInt + 14
        0x00001366:    6802        .h      LDR      r2,[r0,#0]
        0x00001368:    2301        .#      MOVS     r3,#1
        0x0000136a:    045b        [.      LSLS     r3,r3,#17
        0x0000136c:    431a        .C      ORRS     r2,r2,r3
        0x0000136e:    6002        .`      STR      r2,[r0,#0]
        0x00001370:    074a        J.      LSLS     r2,r1,#29
        0x00001372:    d504        ..      BPL      0x137e ; SPI_EnableInt + 28
        0x00001374:    6bc2        .k      LDR      r2,[r0,#0x3c]
        0x00001376:    2301        .#      MOVS     r3,#1
        0x00001378:    029b        ..      LSLS     r3,r3,#10
        0x0000137a:    431a        .C      ORRS     r2,r2,r3
        0x0000137c:    63c2        .c      STR      r2,[r0,#0x3c]
        0x0000137e:    070a        ..      LSLS     r2,r1,#28
        0x00001380:    d503        ..      BPL      0x138a ; SPI_EnableInt + 40
        0x00001382:    6c02        .l      LDR      r2,[r0,#0x40]
        0x00001384:    2308        .#      MOVS     r3,#8
        0x00001386:    431a        .C      ORRS     r2,r2,r3
        0x00001388:    6402        .d      STR      r2,[r0,#0x40]
        0x0000138a:    06ca        ..      LSLS     r2,r1,#27
        0x0000138c:    d503        ..      BPL      0x1396 ; SPI_EnableInt + 52
        0x0000138e:    6c02        .l      LDR      r2,[r0,#0x40]
        0x00001390:    2304        .#      MOVS     r3,#4
        0x00001392:    431a        .C      ORRS     r2,r2,r3
        0x00001394:    6402        .d      STR      r2,[r0,#0x40]
        0x00001396:    068a        ..      LSLS     r2,r1,#26
        0x00001398:    d503        ..      BPL      0x13a2 ; SPI_EnableInt + 64
        0x0000139a:    6c02        .l      LDR      r2,[r0,#0x40]
        0x0000139c:    2340        @#      MOVS     r3,#0x40
        0x0000139e:    431a        .C      ORRS     r2,r2,r3
        0x000013a0:    6402        .d      STR      r2,[r0,#0x40]
        0x000013a2:    0649        I.      LSLS     r1,r1,#25
        0x000013a4:    d504        ..      BPL      0x13b0 ; SPI_EnableInt + 78
        0x000013a6:    6c01        .l      LDR      r1,[r0,#0x40]
        0x000013a8:    2201        ."      MOVS     r2,#1
        0x000013aa:    0552        R.      LSLS     r2,r2,#21
        0x000013ac:    4311        .C      ORRS     r1,r1,r2
        0x000013ae:    6401        .d      STR      r1,[r0,#0x40]
        0x000013b0:    4770        pG      BX       lr
    SPI_DisableInt
        0x000013b2:    07ca        ..      LSLS     r2,r1,#31
        0x000013b4:    d004        ..      BEQ      0x13c0 ; SPI_DisableInt + 14
        0x000013b6:    6802        .h      LDR      r2,[r0,#0]
        0x000013b8:    2301        .#      MOVS     r3,#1
        0x000013ba:    045b        [.      LSLS     r3,r3,#17
        0x000013bc:    439a        .C      BICS     r2,r2,r3
        0x000013be:    6002        .`      STR      r2,[r0,#0]
        0x000013c0:    074a        J.      LSLS     r2,r1,#29
        0x000013c2:    d504        ..      BPL      0x13ce ; SPI_DisableInt + 28
        0x000013c4:    6bc2        .k      LDR      r2,[r0,#0x3c]
        0x000013c6:    2301        .#      MOVS     r3,#1
        0x000013c8:    029b        ..      LSLS     r3,r3,#10
        0x000013ca:    439a        .C      BICS     r2,r2,r3
        0x000013cc:    63c2        .c      STR      r2,[r0,#0x3c]
        0x000013ce:    070a        ..      LSLS     r2,r1,#28
        0x000013d0:    d503        ..      BPL      0x13da ; SPI_DisableInt + 40
        0x000013d2:    6c02        .l      LDR      r2,[r0,#0x40]
        0x000013d4:    2308        .#      MOVS     r3,#8
        0x000013d6:    439a        .C      BICS     r2,r2,r3
        0x000013d8:    6402        .d      STR      r2,[r0,#0x40]
        0x000013da:    06ca        ..      LSLS     r2,r1,#27
        0x000013dc:    d503        ..      BPL      0x13e6 ; SPI_DisableInt + 52
        0x000013de:    6c02        .l      LDR      r2,[r0,#0x40]
        0x000013e0:    2304        .#      MOVS     r3,#4
        0x000013e2:    439a        .C      BICS     r2,r2,r3
        0x000013e4:    6402        .d      STR      r2,[r0,#0x40]
        0x000013e6:    068a        ..      LSLS     r2,r1,#26
        0x000013e8:    d503        ..      BPL      0x13f2 ; SPI_DisableInt + 64
        0x000013ea:    6c02        .l      LDR      r2,[r0,#0x40]
        0x000013ec:    2340        @#      MOVS     r3,#0x40
        0x000013ee:    439a        .C      BICS     r2,r2,r3
        0x000013f0:    6402        .d      STR      r2,[r0,#0x40]
        0x000013f2:    0649        I.      LSLS     r1,r1,#25
        0x000013f4:    d504        ..      BPL      0x1400 ; SPI_DisableInt + 78
        0x000013f6:    6c01        .l      LDR      r1,[r0,#0x40]
        0x000013f8:    2201        ."      MOVS     r2,#1
        0x000013fa:    0552        R.      LSLS     r2,r2,#21
        0x000013fc:    4391        .C      BICS     r1,r1,r2
        0x000013fe:    6401        .d      STR      r1,[r0,#0x40]
        0x00001400:    4770        pG      BX       lr
    $d
        0x00001402:    0000        ..      DCW    0
        0x00001404:    0000ffff    ....    DCD    65535
    $t
    .text
    SYS_ClearResetSrc
        0x00001408:    2105        .!      MOVS     r1,#5
        0x0000140a:    0709        ..      LSLS     r1,r1,#28
        0x0000140c:    684a        Jh      LDR      r2,[r1,#4]
        0x0000140e:    4302        .C      ORRS     r2,r2,r0
        0x00001410:    604a        J`      STR      r2,[r1,#4]
        0x00001412:    4770        pG      BX       lr
    SYS_GetBODStatus
        0x00001414:    2005        .       MOVS     r0,#5
        0x00001416:    0700        ..      LSLS     r0,r0,#28
        0x00001418:    6980        .i      LDR      r0,[r0,#0x18]
        0x0000141a:    0640        @.      LSLS     r0,r0,#25
        0x0000141c:    0fc0        ..      LSRS     r0,r0,#31
        0x0000141e:    4770        pG      BX       lr
    SYS_GetResetSrc
        0x00001420:    2005        .       MOVS     r0,#5
        0x00001422:    0700        ..      LSLS     r0,r0,#28
        0x00001424:    6840        @h      LDR      r0,[r0,#4]
        0x00001426:    4770        pG      BX       lr
    SYS_IsRegLocked
        0x00001428:    4829        )H      LDR      r0,[pc,#164] ; [0x14d0] = 0x50000100
        0x0000142a:    6800        .h      LDR      r0,[r0,#0]
        0x0000142c:    07c0        ..      LSLS     r0,r0,#31
        0x0000142e:    0fc0        ..      LSRS     r0,r0,#31
        0x00001430:    4770        pG      BX       lr
    SYS_LockReg
        0x00001432:    4927        'I      LDR      r1,[pc,#156] ; [0x14d0] = 0x50000100
        0x00001434:    2000        .       MOVS     r0,#0
        0x00001436:    6008        .`      STR      r0,[r1,#0]
        0x00001438:    4770        pG      BX       lr
    SYS_UnlockReg
        0x0000143a:    b510        ..      PUSH     {r4,lr}
        0x0000143c:    2159        Y!      MOVS     r1,#0x59
        0x0000143e:    2316        .#      MOVS     r3,#0x16
        0x00001440:    4823        #H      LDR      r0,[pc,#140] ; [0x14d0] = 0x50000100
        0x00001442:    2288        ."      MOVS     r2,#0x88
        0x00001444:    e002        ..      B        0x144c ; SYS_UnlockReg + 18
        0x00001446:    6001        .`      STR      r1,[r0,#0]
        0x00001448:    6003        .`      STR      r3,[r0,#0]
        0x0000144a:    6002        .`      STR      r2,[r0,#0]
        0x0000144c:    6804        .h      LDR      r4,[r0,#0]
        0x0000144e:    2c01        .,      CMP      r4,#1
        0x00001450:    d1f9        ..      BNE      0x1446 ; SYS_UnlockReg + 12
        0x00001452:    bd10        ..      POP      {r4,pc}
    SYS_ReadPDID
        0x00001454:    2005        .       MOVS     r0,#5
        0x00001456:    0700        ..      LSLS     r0,r0,#28
        0x00001458:    6800        .h      LDR      r0,[r0,#0]
        0x0000145a:    4770        pG      BX       lr
    SYS_ResetChip
        0x0000145c:    2005        .       MOVS     r0,#5
        0x0000145e:    0700        ..      LSLS     r0,r0,#28
        0x00001460:    6881        .h      LDR      r1,[r0,#8]
        0x00001462:    2201        ."      MOVS     r2,#1
        0x00001464:    4311        .C      ORRS     r1,r1,r2
        0x00001466:    6081        .`      STR      r1,[r0,#8]
        0x00001468:    4770        pG      BX       lr
    SYS_ResetCPU
        0x0000146a:    2005        .       MOVS     r0,#5
        0x0000146c:    0700        ..      LSLS     r0,r0,#28
        0x0000146e:    6881        .h      LDR      r1,[r0,#8]
        0x00001470:    2202        ."      MOVS     r2,#2
        0x00001472:    4311        .C      ORRS     r1,r1,r2
        0x00001474:    6081        .`      STR      r1,[r0,#8]
        0x00001476:    4770        pG      BX       lr
    SYS_ResetModule
        0x00001478:    0e01        ..      LSRS     r1,r0,#24
        0x0000147a:    008a        ..      LSLS     r2,r1,#2
        0x0000147c:    2105        .!      MOVS     r1,#5
        0x0000147e:    0709        ..      LSLS     r1,r1,#28
        0x00001480:    1851        Q.      ADDS     r1,r2,r1
        0x00001482:    688b        .h      LDR      r3,[r1,#8]
        0x00001484:    2201        ."      MOVS     r2,#1
        0x00001486:    4082        .@      LSLS     r2,r2,r0
        0x00001488:    4313        .C      ORRS     r3,r3,r2
        0x0000148a:    608b        .`      STR      r3,[r1,#8]
        0x0000148c:    6888        .h      LDR      r0,[r1,#8]
        0x0000148e:    4390        .C      BICS     r0,r0,r2
        0x00001490:    6088        .`      STR      r0,[r1,#8]
        0x00001492:    4770        pG      BX       lr
    SYS_EnableBOD
        0x00001494:    b510        ..      PUSH     {r4,lr}
        0x00001496:    2205        ."      MOVS     r2,#5
        0x00001498:    0712        ..      LSLS     r2,r2,#28
        0x0000149a:    6993        .i      LDR      r3,[r2,#0x18]
        0x0000149c:    2401        .$      MOVS     r4,#1
        0x0000149e:    4323        #C      ORRS     r3,r3,r4
        0x000014a0:    6193        .a      STR      r3,[r2,#0x18]
        0x000014a2:    6993        .i      LDR      r3,[r2,#0x18]
        0x000014a4:    2408        .$      MOVS     r4,#8
        0x000014a6:    43a3        .C      BICS     r3,r3,r4
        0x000014a8:    4303        .C      ORRS     r3,r3,r0
        0x000014aa:    6193        .a      STR      r3,[r2,#0x18]
        0x000014ac:    6990        .i      LDR      r0,[r2,#0x18]
        0x000014ae:    2306        .#      MOVS     r3,#6
        0x000014b0:    4398        .C      BICS     r0,r0,r3
        0x000014b2:    4308        .C      ORRS     r0,r0,r1
        0x000014b4:    6190        .a      STR      r0,[r2,#0x18]
        0x000014b6:    bd10        ..      POP      {r4,pc}
    SYS_DisableBOD
        0x000014b8:    2005        .       MOVS     r0,#5
        0x000014ba:    0700        ..      LSLS     r0,r0,#28
        0x000014bc:    6981        .i      LDR      r1,[r0,#0x18]
        0x000014be:    0849        I.      LSRS     r1,r1,#1
        0x000014c0:    0049        I.      LSLS     r1,r1,#1
        0x000014c2:    6181        .a      STR      r1,[r0,#0x18]
        0x000014c4:    6981        .i      LDR      r1,[r0,#0x18]
        0x000014c6:    2206        ."      MOVS     r2,#6
        0x000014c8:    4311        .C      ORRS     r1,r1,r2
        0x000014ca:    6181        .a      STR      r1,[r0,#0x18]
        0x000014cc:    4770        pG      BX       lr
    $d
        0x000014ce:    0000        ..      DCW    0
        0x000014d0:    50000100    ...P    DCD    1342177536
    $t
    .text
    stackDump
        0x000014d4:    b510        ..      PUSH     {r4,lr}
        0x000014d6:    4604        .F      MOV      r4,r0
        0x000014d8:    6801        .h      LDR      r1,[r0,#0]
        0x000014da:    a029        ).      ADR      r0,{pc}+0xa6 ; 0x1580
        0x000014dc:    f000f96a    ..j.    BL       __0printf$5 ; 0x17b4
        0x000014e0:    a02a        *.      ADR      r0,{pc}+0xac ; 0x158c
        0x000014e2:    6861        ah      LDR      r1,[r4,#4]
        0x000014e4:    f000f966    ..f.    BL       __0printf$5 ; 0x17b4
        0x000014e8:    a02b        +.      ADR      r0,{pc}+0xb0 ; 0x1598
        0x000014ea:    68a1        .h      LDR      r1,[r4,#8]
        0x000014ec:    f000f962    ..b.    BL       __0printf$5 ; 0x17b4
        0x000014f0:    a02c        ,.      ADR      r0,{pc}+0xb4 ; 0x15a4
        0x000014f2:    68e1        .h      LDR      r1,[r4,#0xc]
        0x000014f4:    f000f95e    ..^.    BL       __0printf$5 ; 0x17b4
        0x000014f8:    a02d        -.      ADR      r0,{pc}+0xb8 ; 0x15b0
        0x000014fa:    6921        !i      LDR      r1,[r4,#0x10]
        0x000014fc:    f000f95a    ..Z.    BL       __0printf$5 ; 0x17b4
        0x00001500:    a02e        ..      ADR      r0,{pc}+0xbc ; 0x15bc
        0x00001502:    6961        ai      LDR      r1,[r4,#0x14]
        0x00001504:    f000f956    ..V.    BL       __0printf$5 ; 0x17b4
        0x00001508:    a02f        /.      ADR      r0,{pc}+0xc0 ; 0x15c8
        0x0000150a:    69a1        .i      LDR      r1,[r4,#0x18]
        0x0000150c:    f000f952    ..R.    BL       __0printf$5 ; 0x17b4
        0x00001510:    a030        0.      ADR      r0,{pc}+0xc4 ; 0x15d4
        0x00001512:    69e1        .i      LDR      r1,[r4,#0x1c]
        0x00001514:    f000f94e    ..N.    BL       __0printf$5 ; 0x17b4
        0x00001518:    bd10        ..      POP      {r4,pc}
    Hard_Fault_Handler
    __tagsym$$used
        0x0000151a:    4604        .F      MOV      r4,r0
        0x0000151c:    a030        0.      ADR      r0,{pc}+0xc4 ; 0x15e0
        0x0000151e:    f000f949    ..I.    BL       __0printf$5 ; 0x17b4
        0x00001522:    4620         F      MOV      r0,r4
        0x00001524:    f7ffffd6    ....    BL       stackDump ; 0x14d4
        0x00001528:    e7fe        ..      B        0x1528 ; Hard_Fault_Handler + 14
    SendChar_ToUART
        0x0000152a:    4933        3I      LDR      r1,[pc,#204] ; [0x15f8] = 0x40050000
        0x0000152c:    698a        .i      LDR      r2,[r1,#0x18]
        0x0000152e:    0212        ..      LSLS     r2,r2,#8
        0x00001530:    d4fc        ..      BMI      0x152c ; SendChar_ToUART + 2
        0x00001532:    6008        .`      STR      r0,[r1,#0]
        0x00001534:    280a        .(      CMP      r0,#0xa
        0x00001536:    d104        ..      BNE      0x1542 ; SendChar_ToUART + 24
        0x00001538:    6988        .i      LDR      r0,[r1,#0x18]
        0x0000153a:    0200        ..      LSLS     r0,r0,#8
        0x0000153c:    d4fc        ..      BMI      0x1538 ; SendChar_ToUART + 14
        0x0000153e:    200d        .       MOVS     r0,#0xd
        0x00001540:    6008        .`      STR      r0,[r1,#0]
        0x00001542:    4770        pG      BX       lr
    SendChar
        0x00001544:    e7f1        ..      B        SendChar_ToUART ; 0x152a
    GetChar
        0x00001546:    482c        ,H      LDR      r0,[pc,#176] ; [0x15f8] = 0x40050000
        0x00001548:    6981        .i      LDR      r1,[r0,#0x18]
        0x0000154a:    0449        I.      LSLS     r1,r1,#17
        0x0000154c:    d4fc        ..      BMI      0x1548 ; GetChar + 2
        0x0000154e:    6800        .h      LDR      r0,[r0,#0]
        0x00001550:    b2c0        ..      UXTB     r0,r0
        0x00001552:    4770        pG      BX       lr
    kbhit
        0x00001554:    4828        (H      LDR      r0,[pc,#160] ; [0x15f8] = 0x40050000
        0x00001556:    6980        .i      LDR      r0,[r0,#0x18]
        0x00001558:    0440        @.      LSLS     r0,r0,#17
        0x0000155a:    17c0        ..      ASRS     r0,r0,#31
        0x0000155c:    1c40        @.      ADDS     r0,r0,#1
        0x0000155e:    4770        pG      BX       lr
    IsDebugFifoEmpty
        0x00001560:    4825        %H      LDR      r0,[pc,#148] ; [0x15f8] = 0x40050000
        0x00001562:    6980        .i      LDR      r0,[r0,#0x18]
        0x00001564:    00c0        ..      LSLS     r0,r0,#3
        0x00001566:    0fc0        ..      LSRS     r0,r0,#31
        0x00001568:    4770        pG      BX       lr
    _ttywrch
        0x0000156a:    e7de        ..      B        SendChar_ToUART ; 0x152a
    fputc
        0x0000156c:    b500        ..      PUSH     {lr}
        0x0000156e:    4603        .F      MOV      r3,r0
        0x00001570:    f7ffffdb    ....    BL       SendChar_ToUART ; 0x152a
        0x00001574:    4618        .F      MOV      r0,r3
        0x00001576:    bd00        ..      POP      {pc}
    fgetc
        0x00001578:    e7e5        ..      B        GetChar ; 0x1546
    ferror
        0x0000157a:    2000        .       MOVS     r0,#0
        0x0000157c:    43c0        .C      MVNS     r0,r0
        0x0000157e:    4770        pG      BX       lr
    $d
        0x00001580:    20203072    r0      DCD    538980466
        0x00001584:    7830203d    = 0x    DCD    2016419901
        0x00001588:    000a7825    %x..    DCD    686117
        0x0000158c:    20203172    r1      DCD    538980722
        0x00001590:    7830203d    = 0x    DCD    2016419901
        0x00001594:    000a7825    %x..    DCD    686117
        0x00001598:    20203272    r2      DCD    538980978
        0x0000159c:    7830203d    = 0x    DCD    2016419901
        0x000015a0:    000a7825    %x..    DCD    686117
        0x000015a4:    20203372    r3      DCD    538981234
        0x000015a8:    7830203d    = 0x    DCD    2016419901
        0x000015ac:    000a7825    %x..    DCD    686117
        0x000015b0:    20323172    r12     DCD    540160370
        0x000015b4:    7830203d    = 0x    DCD    2016419901
        0x000015b8:    000a7825    %x..    DCD    686117
        0x000015bc:    2020726c    lr      DCD    538997356
        0x000015c0:    7830203d    = 0x    DCD    2016419901
        0x000015c4:    000a7825    %x..    DCD    686117
        0x000015c8:    20206370    pc      DCD    538993520
        0x000015cc:    7830203d    = 0x    DCD    2016419901
        0x000015d0:    000a7825    %x..    DCD    686117
        0x000015d4:    20727370    psr     DCD    544371568
        0x000015d8:    7830203d    = 0x    DCD    2016419901
        0x000015dc:    000a7825    %x..    DCD    686117
        0x000015e0:    48206e49    In H    DCD    1210084937
        0x000015e4:    20647261    ard     DCD    543453793
        0x000015e8:    6c756146    Faul    DCD    1819631942
        0x000015ec:    61482074    t Ha    DCD    1632116852
        0x000015f0:    656c646e    ndle    DCD    1701602414
        0x000015f4:    00000a72    r...    DCD    2674
        0x000015f8:    40050000    ...@    DCD    1074069504
    $t
    .text
    Reset_Handler
        0x000015fc:    4803        .H      LDR      r0,[pc,#12] ; [0x160c] = 0xc1
        0x000015fe:    4700        .G      BX       r0
    NMI_Handler
        0x00001600:    e7fe        ..      B        NMI_Handler ; 0x1600
        0x00001602:    e7fe        ..      B        0x1602 ; NMI_Handler + 2
    SVC_Handler
        0x00001604:    e7fe        ..      B        SVC_Handler ; 0x1604
    PendSV_Handler
        0x00001606:    e7fe        ..      B        PendSV_Handler ; 0x1606
        0x00001608:    e7fe        ..      B        0x1608 ; PendSV_Handler + 2
    Default_Handler
    BOD_IRQHandler
    EINT0_IRQHandler
    EINT1_IRQHandler
    FB_IRQHandler
    GPIO01_IRQHandler
    GPIO234_IRQHandler
    GPIO5_IRQHandler
    HIRC_IRQHandler
    I2C_IRQHandler
    PDWU_IRQHandler
    PWM_IRQHandler
    UART_IRQHandler
    WDT_IRQHandler
        0x0000160a:    e7fe        ..      B        Default_Handler ; 0x160a
    $d
        0x0000160c:    000000c1    ....    DCD    193
    $t
    .text
    SystemCoreClockUpdate
        0x00001610:    b510        ..      PUSH     {r4,lr}
        0x00001612:    4a0d        .J      LDR      r2,[pc,#52] ; [0x1648] = 0x50000200
        0x00001614:    6910        .i      LDR      r0,[r2,#0x10]
        0x00001616:    0741        A.      LSLS     r1,r0,#29
        0x00001618:    0f49        I.      LSRS     r1,r1,#29
        0x0000161a:    d011        ..      BEQ      0x1640 ; SystemCoreClockUpdate + 48
        0x0000161c:    2903        .)      CMP      r1,#3
        0x0000161e:    d011        ..      BEQ      0x1644 ; SystemCoreClockUpdate + 52
        0x00001620:    480a        .H      LDR      r0,[pc,#40] ; [0x164c] = 0x1518000
        0x00001622:    6991        .i      LDR      r1,[r2,#0x18]
        0x00001624:    0709        ..      LSLS     r1,r1,#28
        0x00001626:    0f09        ..      LSRS     r1,r1,#28
        0x00001628:    1c49        I.      ADDS     r1,r1,#1
        0x0000162a:    f000f819    ....    BL       __aeabi_uidiv ; 0x1660
        0x0000162e:    4c08        .L      LDR      r4,[pc,#32] ; [0x1650] = 0x20000280
        0x00001630:    4908        .I      LDR      r1,[pc,#32] ; [0x1654] = 0xf4240
        0x00001632:    6020         `      STR      r0,[r4,#0]
        0x00001634:    104a        J.      ASRS     r2,r1,#1
        0x00001636:    1880        ..      ADDS     r0,r0,r2
        0x00001638:    f000f812    ....    BL       __aeabi_uidiv ; 0x1660
        0x0000163c:    6060        ``      STR      r0,[r4,#4]
        0x0000163e:    bd10        ..      POP      {r4,pc}
        0x00001640:    4805        .H      LDR      r0,[pc,#20] ; [0x1658] = 0xb71b00
        0x00001642:    e7ee        ..      B        0x1622 ; SystemCoreClockUpdate + 18
        0x00001644:    4805        .H      LDR      r0,[pc,#20] ; [0x165c] = 0x2710
        0x00001646:    e7ec        ..      B        0x1622 ; SystemCoreClockUpdate + 18
    $d
        0x00001648:    50000200    ...P    DCD    1342177792
        0x0000164c:    01518000    ..Q.    DCD    22118400
        0x00001650:    20000280    ...     DCD    536871552
        0x00001654:    000f4240    @B..    DCD    1000000
        0x00001658:    00b71b00    ....    DCD    12000000
        0x0000165c:    00002710    .'..    DCD    10000
    $t
    .text
    __aeabi_uidiv
    __aeabi_uidivmod
        0x00001660:    b530        0.      PUSH     {r4,r5,lr}
        0x00001662:    460b        .F      MOV      r3,r1
        0x00001664:    4601        .F      MOV      r1,r0
        0x00001666:    2000        .       MOVS     r0,#0
        0x00001668:    2220         "      MOVS     r2,#0x20
        0x0000166a:    2401        .$      MOVS     r4,#1
        0x0000166c:    e009        ..      B        0x1682 ; __aeabi_uidiv + 34
        0x0000166e:    460d        .F      MOV      r5,r1
        0x00001670:    40d5        .@      LSRS     r5,r5,r2
        0x00001672:    429d        .B      CMP      r5,r3
        0x00001674:    d305        ..      BCC      0x1682 ; __aeabi_uidiv + 34
        0x00001676:    461d        .F      MOV      r5,r3
        0x00001678:    4095        .@      LSLS     r5,r5,r2
        0x0000167a:    1b49        I.      SUBS     r1,r1,r5
        0x0000167c:    4625        %F      MOV      r5,r4
        0x0000167e:    4095        .@      LSLS     r5,r5,r2
        0x00001680:    1940        @.      ADDS     r0,r0,r5
        0x00001682:    4615        .F      MOV      r5,r2
        0x00001684:    1e52        R.      SUBS     r2,r2,#1
        0x00001686:    2d00        .-      CMP      r5,#0
        0x00001688:    dcf1        ..      BGT      0x166e ; __aeabi_uidiv + 14
        0x0000168a:    bd30        0.      POP      {r4,r5,pc}
    .text
    __aeabi_uldivmod
        0x0000168c:    b5f0        ..      PUSH     {r4-r7,lr}
        0x0000168e:    b41f        ..      PUSH     {r0-r4}
        0x00001690:    4606        .F      MOV      r6,r0
        0x00001692:    2000        .       MOVS     r0,#0
        0x00001694:    b082        ..      SUB      sp,sp,#8
        0x00001696:    4605        .F      MOV      r5,r0
        0x00001698:    2440        @$      MOVS     r4,#0x40
        0x0000169a:    9101        ..      STR      r1,[sp,#4]
        0x0000169c:    9000        ..      STR      r0,[sp,#0]
        0x0000169e:    e01b        ..      B        0x16d8 ; __aeabi_uldivmod + 76
        0x000016a0:    9901        ..      LDR      r1,[sp,#4]
        0x000016a2:    4622        "F      MOV      r2,r4
        0x000016a4:    460f        .F      MOV      r7,r1
        0x000016a6:    4630        0F      MOV      r0,r6
        0x000016a8:    f000f820    .. .    BL       __aeabi_llsr ; 0x16ec
        0x000016ac:    9a04        ..      LDR      r2,[sp,#0x10]
        0x000016ae:    9b05        ..      LDR      r3,[sp,#0x14]
        0x000016b0:    1a80        ..      SUBS     r0,r0,r2
        0x000016b2:    4199        .A      SBCS     r1,r1,r3
        0x000016b4:    d310        ..      BCC      0x16d8 ; __aeabi_uldivmod + 76
        0x000016b6:    4610        .F      MOV      r0,r2
        0x000016b8:    4619        .F      MOV      r1,r3
        0x000016ba:    4622        "F      MOV      r2,r4
        0x000016bc:    f000f83a    ..:.    BL       __aeabi_llsl ; 0x1734
        0x000016c0:    1a36        6.      SUBS     r6,r6,r0
        0x000016c2:    418f        .A      SBCS     r7,r7,r1
        0x000016c4:    9701        ..      STR      r7,[sp,#4]
        0x000016c6:    4622        "F      MOV      r2,r4
        0x000016c8:    2001        .       MOVS     r0,#1
        0x000016ca:    2100        .!      MOVS     r1,#0
        0x000016cc:    9f00        ..      LDR      r7,[sp,#0]
        0x000016ce:    f000f831    ..1.    BL       __aeabi_llsl ; 0x1734
        0x000016d2:    1838        8.      ADDS     r0,r7,r0
        0x000016d4:    414d        MA      ADCS     r5,r5,r1
        0x000016d6:    9000        ..      STR      r0,[sp,#0]
        0x000016d8:    4620         F      MOV      r0,r4
        0x000016da:    1e64        d.      SUBS     r4,r4,#1
        0x000016dc:    2800        .(      CMP      r0,#0
        0x000016de:    dcdf        ..      BGT      0x16a0 ; __aeabi_uldivmod + 20
        0x000016e0:    9b01        ..      LDR      r3,[sp,#4]
        0x000016e2:    9800        ..      LDR      r0,[sp,#0]
        0x000016e4:    4629        )F      MOV      r1,r5
        0x000016e6:    4632        2F      MOV      r2,r6
        0x000016e8:    b007        ..      ADD      sp,sp,#0x1c
        0x000016ea:    bdf0        ..      POP      {r4-r7,pc}
    .text
    __aeabi_llsr
    _ll_ushift_r
        0x000016ec:    b510        ..      PUSH     {r4,lr}
        0x000016ee:    2a20         *      CMP      r2,#0x20
        0x000016f0:    db04        ..      BLT      0x16fc ; __aeabi_llsr + 16
        0x000016f2:    4608        .F      MOV      r0,r1
        0x000016f4:    3a20         :      SUBS     r2,r2,#0x20
        0x000016f6:    40d0        .@      LSRS     r0,r0,r2
        0x000016f8:    2100        .!      MOVS     r1,#0
        0x000016fa:    bd10        ..      POP      {r4,pc}
        0x000016fc:    460b        .F      MOV      r3,r1
        0x000016fe:    40d3        .@      LSRS     r3,r3,r2
        0x00001700:    40d0        .@      LSRS     r0,r0,r2
        0x00001702:    2420         $      MOVS     r4,#0x20
        0x00001704:    1aa2        ..      SUBS     r2,r4,r2
        0x00001706:    4091        .@      LSLS     r1,r1,r2
        0x00001708:    4308        .C      ORRS     r0,r0,r1
        0x0000170a:    4619        .F      MOV      r1,r3
        0x0000170c:    bd10        ..      POP      {r4,pc}
        0x0000170e:    0000        ..      MOVS     r0,r0
    .text
    __scatterload
    __scatterload_rt2
        0x00001710:    4c06        .L      LDR      r4,[pc,#24] ; [0x172c] = 0x1b08
        0x00001712:    2501        .%      MOVS     r5,#1
        0x00001714:    4e06        .N      LDR      r6,[pc,#24] ; [0x1730] = 0x1b28
        0x00001716:    e005        ..      B        0x1724 ; __scatterload + 20
        0x00001718:    68e3        .h      LDR      r3,[r4,#0xc]
        0x0000171a:    cc07        ..      LDM      r4!,{r0-r2}
        0x0000171c:    432b        +C      ORRS     r3,r3,r5
        0x0000171e:    3c0c        .<      SUBS     r4,r4,#0xc
        0x00001720:    4798        .G      BLX      r3
        0x00001722:    3410        .4      ADDS     r4,r4,#0x10
        0x00001724:    42b4        .B      CMP      r4,r6
        0x00001726:    d3f7        ..      BCC      0x1718 ; __scatterload + 8
        0x00001728:    f7fefcce    ....    BL       __main_after_scatterload ; 0xc8
    $d
        0x0000172c:    00001b08    ....    DCD    6920
        0x00001730:    00001b28    (...    DCD    6952
    $t
    .text
    __aeabi_llsl
    _ll_shift_l
        0x00001734:    b510        ..      PUSH     {r4,lr}
        0x00001736:    2a20         *      CMP      r2,#0x20
        0x00001738:    db04        ..      BLT      0x1744 ; __aeabi_llsl + 16
        0x0000173a:    4601        .F      MOV      r1,r0
        0x0000173c:    3a20         :      SUBS     r2,r2,#0x20
        0x0000173e:    4091        .@      LSLS     r1,r1,r2
        0x00001740:    2000        .       MOVS     r0,#0
        0x00001742:    bd10        ..      POP      {r4,pc}
        0x00001744:    4091        .@      LSLS     r1,r1,r2
        0x00001746:    2320         #      MOVS     r3,#0x20
        0x00001748:    1a9c        ..      SUBS     r4,r3,r2
        0x0000174a:    4603        .F      MOV      r3,r0
        0x0000174c:    40e3        .@      LSRS     r3,r3,r4
        0x0000174e:    4319        .C      ORRS     r1,r1,r3
        0x00001750:    4090        .@      LSLS     r0,r0,r2
        0x00001752:    bd10        ..      POP      {r4,pc}
    i.BLDC_stopMotor
    BLDC_stopMotor
        0x00001754:    b530        0.      PUSH     {r4,r5,lr}
        0x00001756:    4812        .H      LDR      r0,[pc,#72] ; [0x17a0] = 0x50004240
        0x00001758:    2200        ."      MOVS     r2,#0
        0x0000175a:    6202        .b      STR      r2,[r0,#0x20]
        0x0000175c:    4b11        .K      LDR      r3,[pc,#68] ; [0x17a4] = 0x40040040
        0x0000175e:    615a        Za      STR      r2,[r3,#0x14]
        0x00001760:    4811        .H      LDR      r0,[pc,#68] ; [0x17a8] = 0x40010000
        0x00001762:    6801        .h      LDR      r1,[r0,#0]
        0x00001764:    0384        ..      LSLS     r4,r0,#14
        0x00001766:    43a1        .C      BICS     r1,r1,r4
        0x00001768:    6001        .`      STR      r1,[r0,#0]
        0x0000176a:    490f        .I      LDR      r1,[pc,#60] ; [0x17a8] = 0x40010000
        0x0000176c:    3120         1      ADDS     r1,r1,#0x20
        0x0000176e:    680d        .h      LDR      r5,[r1,#0]
        0x00001770:    43a5        .C      BICS     r5,r5,r4
        0x00001772:    600d        .`      STR      r5,[r1,#0]
        0x00001774:    6805        .h      LDR      r5,[r0,#0]
        0x00001776:    0344        D.      LSLS     r4,r0,#13
        0x00001778:    43a5        .C      BICS     r5,r5,r4
        0x0000177a:    6005        .`      STR      r5,[r0,#0]
        0x0000177c:    6808        .h      LDR      r0,[r1,#0]
        0x0000177e:    43a0        .C      BICS     r0,r0,r4
        0x00001780:    6008        .`      STR      r0,[r1,#0]
        0x00001782:    20ff        .       MOVS     r0,#0xff
        0x00001784:    63d8        .c      STR      r0,[r3,#0x3c]
        0x00001786:    6398        .c      STR      r0,[r3,#0x38]
        0x00001788:    4808        .H      LDR      r0,[pc,#32] ; [0x17ac] = 0x20000288
        0x0000178a:    8841        A.      LDRH     r1,[r0,#2]
        0x0000178c:    0849        I.      LSRS     r1,r1,#1
        0x0000178e:    0049        I.      LSLS     r1,r1,#1
        0x00001790:    8041        A.      STRH     r1,[r0,#2]
        0x00001792:    8881        ..      LDRH     r1,[r0,#4]
        0x00001794:    0849        I.      LSRS     r1,r1,#1
        0x00001796:    0049        I.      LSLS     r1,r1,#1
        0x00001798:    8081        ..      STRH     r1,[r0,#4]
        0x0000179a:    4805        .H      LDR      r0,[pc,#20] ; [0x17b0] = 0x20000004
        0x0000179c:    7002        .p      STRB     r2,[r0,#0]
        0x0000179e:    bd30        0.      POP      {r4,r5,pc}
    $d
        0x000017a0:    50004240    @B.P    DCD    1342194240
        0x000017a4:    40040040    @..@    DCD    1074004032
        0x000017a8:    40010000    ...@    DCD    1073807360
        0x000017ac:    20000288    ...     DCD    536871560
        0x000017b0:    20000004    ...     DCD    536870916
    $t
    i.__0printf$5
    __0printf$5
    __1printf$5
    __2printf
        0x000017b4:    b40f        ..      PUSH     {r0-r3}
        0x000017b6:    b510        ..      PUSH     {r4,lr}
        0x000017b8:    a903        ..      ADD      r1,sp,#0xc
        0x000017ba:    4b04        .K      LDR      r3,[pc,#16] ; [0x17cc] = 0x156d
        0x000017bc:    4a04        .J      LDR      r2,[pc,#16] ; [0x17d0] = 0x2000027c
        0x000017be:    9802        ..      LDR      r0,[sp,#8]
        0x000017c0:    f000f824    ..$.    BL       _printf_core ; 0x180c
        0x000017c4:    bc10        ..      POP      {r4}
        0x000017c6:    bc08        ..      POP      {r3}
        0x000017c8:    b004        ..      ADD      sp,sp,#0x10
        0x000017ca:    4718        .G      BX       r3
    $d
        0x000017cc:    0000156d    m...    DCD    5485
        0x000017d0:    2000027c    |..     DCD    536871548
    $t
    i.__ARM_common_switch8
    __ARM_common_switch8
        0x000017d4:    b430        0.      PUSH     {r4,r5}
        0x000017d6:    4674        tF      MOV      r4,lr
        0x000017d8:    1e64        d.      SUBS     r4,r4,#1
        0x000017da:    7825        %x      LDRB     r5,[r4,#0]
        0x000017dc:    1c64        d.      ADDS     r4,r4,#1
        0x000017de:    42ab        .B      CMP      r3,r5
        0x000017e0:    d200        ..      BCS      0x17e4 ; __ARM_common_switch8 + 16
        0x000017e2:    461d        .F      MOV      r5,r3
        0x000017e4:    5d63        c]      LDRB     r3,[r4,r5]
        0x000017e6:    005b        [.      LSLS     r3,r3,#1
        0x000017e8:    18e3        ..      ADDS     r3,r4,r3
        0x000017ea:    bc30        0.      POP      {r4,r5}
        0x000017ec:    4718        .G      BX       r3
    i.__scatterload_copy
    __scatterload_copy
        0x000017ee:    e002        ..      B        0x17f6 ; __scatterload_copy + 8
        0x000017f0:    c808        ..      LDM      r0!,{r3}
        0x000017f2:    1f12        ..      SUBS     r2,r2,#4
        0x000017f4:    c108        ..      STM      r1!,{r3}
        0x000017f6:    2a00        .*      CMP      r2,#0
        0x000017f8:    d1fa        ..      BNE      0x17f0 ; __scatterload_copy + 2
        0x000017fa:    4770        pG      BX       lr
    i.__scatterload_null
    __scatterload_null
        0x000017fc:    4770        pG      BX       lr
    i.__scatterload_zeroinit
    __scatterload_zeroinit
        0x000017fe:    2000        .       MOVS     r0,#0
        0x00001800:    e001        ..      B        0x1806 ; __scatterload_zeroinit + 8
        0x00001802:    c101        ..      STM      r1!,{r0}
        0x00001804:    1f12        ..      SUBS     r2,r2,#4
        0x00001806:    2a00        .*      CMP      r2,#0
        0x00001808:    d1fb        ..      BNE      0x1802 ; __scatterload_zeroinit + 4
        0x0000180a:    4770        pG      BX       lr
    i._printf_core
    _printf_core
        0x0000180c:    b5ff        ..      PUSH     {r0-r7,lr}
        0x0000180e:    b08f        ..      SUB      sp,sp,#0x3c
        0x00001810:    460f        .F      MOV      r7,r1
        0x00001812:    4604        .F      MOV      r4,r0
        0x00001814:    2600        .&      MOVS     r6,#0
        0x00001816:    e006        ..      B        0x1826 ; _printf_core + 26
        0x00001818:    2825        %(      CMP      r0,#0x25
        0x0000181a:    d00a        ..      BEQ      0x1832 ; _printf_core + 38
        0x0000181c:    9a12        ..      LDR      r2,[sp,#0x48]
        0x0000181e:    9911        ..      LDR      r1,[sp,#0x44]
        0x00001820:    4790        .G      BLX      r2
        0x00001822:    1c64        d.      ADDS     r4,r4,#1
        0x00001824:    1c76        v.      ADDS     r6,r6,#1
        0x00001826:    7820         x      LDRB     r0,[r4,#0]
        0x00001828:    2800        .(      CMP      r0,#0
        0x0000182a:    d1f5        ..      BNE      0x1818 ; _printf_core + 12
        0x0000182c:    4630        0F      MOV      r0,r6
        0x0000182e:    b013        ..      ADD      sp,sp,#0x4c
        0x00001830:    bdf0        ..      POP      {r4-r7,pc}
        0x00001832:    2500        .%      MOVS     r5,#0
        0x00001834:    2101        .!      MOVS     r1,#1
        0x00001836:    4aa1        .J      LDR      r2,[pc,#644] ; [0x1abc] = 0x12809
        0x00001838:    9500        ..      STR      r5,[sp,#0]
        0x0000183a:    e000        ..      B        0x183e ; _printf_core + 50
        0x0000183c:    4305        .C      ORRS     r5,r5,r0
        0x0000183e:    1c64        d.      ADDS     r4,r4,#1
        0x00001840:    7823        #x      LDRB     r3,[r4,#0]
        0x00001842:    4608        .F      MOV      r0,r1
        0x00001844:    3b20         ;      SUBS     r3,r3,#0x20
        0x00001846:    4098        .@      LSLS     r0,r0,r3
        0x00001848:    4210        .B      TST      r0,r2
        0x0000184a:    d1f7        ..      BNE      0x183c ; _printf_core + 48
        0x0000184c:    7820         x      LDRB     r0,[r4,#0]
        0x0000184e:    282e        .(      CMP      r0,#0x2e
        0x00001850:    d115        ..      BNE      0x187e ; _printf_core + 114
        0x00001852:    2004        .       MOVS     r0,#4
        0x00001854:    4305        .C      ORRS     r5,r5,r0
        0x00001856:    7860        `x      LDRB     r0,[r4,#1]
        0x00001858:    1c64        d.      ADDS     r4,r4,#1
        0x0000185a:    282a        *(      CMP      r0,#0x2a
        0x0000185c:    d10a        ..      BNE      0x1874 ; _printf_core + 104
        0x0000185e:    cf01        ..      LDM      r7!,{r0}
        0x00001860:    1c64        d.      ADDS     r4,r4,#1
        0x00001862:    9000        ..      STR      r0,[sp,#0]
        0x00001864:    e00b        ..      B        0x187e ; _printf_core + 114
        0x00001866:    9900        ..      LDR      r1,[sp,#0]
        0x00001868:    220a        ."      MOVS     r2,#0xa
        0x0000186a:    4351        QC      MULS     r1,r2,r1
        0x0000186c:    3930        09      SUBS     r1,r1,#0x30
        0x0000186e:    1840        @.      ADDS     r0,r0,r1
        0x00001870:    1c64        d.      ADDS     r4,r4,#1
        0x00001872:    9000        ..      STR      r0,[sp,#0]
        0x00001874:    7820         x      LDRB     r0,[r4,#0]
        0x00001876:    4601        .F      MOV      r1,r0
        0x00001878:    3930        09      SUBS     r1,r1,#0x30
        0x0000187a:    2909        .)      CMP      r1,#9
        0x0000187c:    d9f3        ..      BLS      0x1866 ; _printf_core + 90
        0x0000187e:    7820         x      LDRB     r0,[r4,#0]
        0x00001880:    286c        l(      CMP      r0,#0x6c
        0x00001882:    d00e        ..      BEQ      0x18a2 ; _printf_core + 150
        0x00001884:    dc04        ..      BGT      0x1890 ; _printf_core + 132
        0x00001886:    284c        L(      CMP      r0,#0x4c
        0x00001888:    d013        ..      BEQ      0x18b2 ; _printf_core + 166
        0x0000188a:    286a        j(      CMP      r0,#0x6a
        0x0000188c:    d112        ..      BNE      0x18b4 ; _printf_core + 168
        0x0000188e:    e004        ..      B        0x189a ; _printf_core + 142
        0x00001890:    2874        t(      CMP      r0,#0x74
        0x00001892:    d00e        ..      BEQ      0x18b2 ; _printf_core + 166
        0x00001894:    287a        z(      CMP      r0,#0x7a
        0x00001896:    d10d        ..      BNE      0x18b4 ; _printf_core + 168
        0x00001898:    e00b        ..      B        0x18b2 ; _printf_core + 166
        0x0000189a:    2001        .       MOVS     r0,#1
        0x0000189c:    0540        @.      LSLS     r0,r0,#21
        0x0000189e:    4305        .C      ORRS     r5,r5,r0
        0x000018a0:    e007        ..      B        0x18b2 ; _printf_core + 166
        0x000018a2:    2101        .!      MOVS     r1,#1
        0x000018a4:    0509        ..      LSLS     r1,r1,#20
        0x000018a6:    7862        bx      LDRB     r2,[r4,#1]
        0x000018a8:    430d        .C      ORRS     r5,r5,r1
        0x000018aa:    4282        .B      CMP      r2,r0
        0x000018ac:    d101        ..      BNE      0x18b2 ; _printf_core + 166
        0x000018ae:    186d        m.      ADDS     r5,r5,r1
        0x000018b0:    1c64        d.      ADDS     r4,r4,#1
        0x000018b2:    1c64        d.      ADDS     r4,r4,#1
        0x000018b4:    7820         x      LDRB     r0,[r4,#0]
        0x000018b6:    4686        .F      MOV      lr,r0
        0x000018b8:    2869        i(      CMP      r0,#0x69
        0x000018ba:    d04a        J.      BEQ      0x1952 ; _printf_core + 326
        0x000018bc:    dc08        ..      BGT      0x18d0 ; _printf_core + 196
        0x000018be:    2800        .(      CMP      r0,#0
        0x000018c0:    d0b4        ..      BEQ      0x182c ; _printf_core + 32
        0x000018c2:    2858        X(      CMP      r0,#0x58
        0x000018c4:    d06d        m.      BEQ      0x19a2 ; _printf_core + 406
        0x000018c6:    2863        c(      CMP      r0,#0x63
        0x000018c8:    d010        ..      BEQ      0x18ec ; _printf_core + 224
        0x000018ca:    2864        d(      CMP      r0,#0x64
        0x000018cc:    d108        ..      BNE      0x18e0 ; _printf_core + 212
        0x000018ce:    e040        @.      B        0x1952 ; _printf_core + 326
        0x000018d0:    2870        p(      CMP      r0,#0x70
        0x000018d2:    d06b        k.      BEQ      0x19ac ; _printf_core + 416
        0x000018d4:    2873        s(      CMP      r0,#0x73
        0x000018d6:    d012        ..      BEQ      0x18fe ; _printf_core + 242
        0x000018d8:    2875        u(      CMP      r0,#0x75
        0x000018da:    d060        `.      BEQ      0x199e ; _printf_core + 402
        0x000018dc:    2878        x(      CMP      r0,#0x78
        0x000018de:    d060        `.      BEQ      0x19a2 ; _printf_core + 406
        0x000018e0:    9a12        ..      LDR      r2,[sp,#0x48]
        0x000018e2:    4670        pF      MOV      r0,lr
        0x000018e4:    9911        ..      LDR      r1,[sp,#0x44]
        0x000018e6:    4790        .G      BLX      r2
        0x000018e8:    1c76        v.      ADDS     r6,r6,#1
        0x000018ea:    e0e5        ..      B        0x1ab8 ; _printf_core + 684
        0x000018ec:    7838        8x      LDRB     r0,[r7,#0]
        0x000018ee:    4669        iF      MOV      r1,sp
        0x000018f0:    7208        .r      STRB     r0,[r1,#8]
        0x000018f2:    2000        .       MOVS     r0,#0
        0x000018f4:    7248        Hr      STRB     r0,[r1,#9]
        0x000018f6:    a802        ..      ADD      r0,sp,#8
        0x000018f8:    9001        ..      STR      r0,[sp,#4]
        0x000018fa:    2001        .       MOVS     r0,#1
        0x000018fc:    e003        ..      B        0x1906 ; _printf_core + 250
        0x000018fe:    6838        8h      LDR      r0,[r7,#0]
        0x00001900:    9001        ..      STR      r0,[sp,#4]
        0x00001902:    2000        .       MOVS     r0,#0
        0x00001904:    43c0        .C      MVNS     r0,r0
        0x00001906:    1d3f        ?.      ADDS     r7,r7,#4
        0x00001908:    0769        i.      LSLS     r1,r5,#29
        0x0000190a:    d50c        ..      BPL      0x1926 ; _printf_core + 282
        0x0000190c:    2500        .%      MOVS     r5,#0
        0x0000190e:    e000        ..      B        0x1912 ; _printf_core + 262
        0x00001910:    1c6d        m.      ADDS     r5,r5,#1
        0x00001912:    9900        ..      LDR      r1,[sp,#0]
        0x00001914:    428d        .B      CMP      r5,r1
        0x00001916:    da0f        ..      BGE      0x1938 ; _printf_core + 300
        0x00001918:    4285        .B      CMP      r5,r0
        0x0000191a:    dbf9        ..      BLT      0x1910 ; _printf_core + 260
        0x0000191c:    9901        ..      LDR      r1,[sp,#4]
        0x0000191e:    5d49        I]      LDRB     r1,[r1,r5]
        0x00001920:    2900        .)      CMP      r1,#0
        0x00001922:    d1f5        ..      BNE      0x1910 ; _printf_core + 260
        0x00001924:    e008        ..      B        0x1938 ; _printf_core + 300
        0x00001926:    2500        .%      MOVS     r5,#0
        0x00001928:    e000        ..      B        0x192c ; _printf_core + 288
        0x0000192a:    1c6d        m.      ADDS     r5,r5,#1
        0x0000192c:    4285        .B      CMP      r5,r0
        0x0000192e:    dbfc        ..      BLT      0x192a ; _printf_core + 286
        0x00001930:    9901        ..      LDR      r1,[sp,#4]
        0x00001932:    5d49        I]      LDRB     r1,[r1,r5]
        0x00001934:    2900        .)      CMP      r1,#0
        0x00001936:    d1f8        ..      BNE      0x192a ; _printf_core + 286
        0x00001938:    1976        v.      ADDS     r6,r6,r5
        0x0000193a:    e007        ..      B        0x194c ; _printf_core + 320
        0x0000193c:    9801        ..      LDR      r0,[sp,#4]
        0x0000193e:    9901        ..      LDR      r1,[sp,#4]
        0x00001940:    7800        .x      LDRB     r0,[r0,#0]
        0x00001942:    1c49        I.      ADDS     r1,r1,#1
        0x00001944:    9101        ..      STR      r1,[sp,#4]
        0x00001946:    9a12        ..      LDR      r2,[sp,#0x48]
        0x00001948:    9911        ..      LDR      r1,[sp,#0x44]
        0x0000194a:    4790        .G      BLX      r2
        0x0000194c:    1e6d        m.      SUBS     r5,r5,#1
        0x0000194e:    d2f5        ..      BCS      0x193c ; _printf_core + 304
        0x00001950:    e0b2        ..      B        0x1ab8 ; _printf_core + 684
        0x00001952:    200a        .       MOVS     r0,#0xa
        0x00001954:    9002        ..      STR      r0,[sp,#8]
        0x00001956:    2100        .!      MOVS     r1,#0
        0x00001958:    0268        h.      LSLS     r0,r5,#9
        0x0000195a:    0f40        @.      LSRS     r0,r0,#29
        0x0000195c:    9103        ..      STR      r1,[sp,#0xc]
        0x0000195e:    2802        .(      CMP      r0,#2
        0x00001960:    d00c        ..      BEQ      0x197c ; _printf_core + 368
        0x00001962:    cf01        ..      LDM      r7!,{r0}
        0x00001964:    17c1        ..      ASRS     r1,r0,#31
        0x00001966:    4684        .F      MOV      r12,r0
        0x00001968:    2900        .)      CMP      r1,#0
        0x0000196a:    da0d        ..      BGE      0x1988 ; _printf_core + 380
        0x0000196c:    4662        bF      MOV      r2,r12
        0x0000196e:    4608        .F      MOV      r0,r1
        0x00001970:    4252        RB      RSBS     r2,r2,#0
        0x00001972:    2100        .!      MOVS     r1,#0
        0x00001974:    4181        .A      SBCS     r1,r1,r0
        0x00001976:    4694        .F      MOV      r12,r2
        0x00001978:    202d        -       MOVS     r0,#0x2d
        0x0000197a:    e008        ..      B        0x198e ; _printf_core + 386
        0x0000197c:    1dff        ..      ADDS     r7,r7,#7
        0x0000197e:    08ff        ..      LSRS     r7,r7,#3
        0x00001980:    00ff        ..      LSLS     r7,r7,#3
        0x00001982:    cf03        ..      LDM      r7!,{r0,r1}
        0x00001984:    4684        .F      MOV      r12,r0
        0x00001986:    e7ef        ..      B        0x1968 ; _printf_core + 348
        0x00001988:    0528        (.      LSLS     r0,r5,#20
        0x0000198a:    d504        ..      BPL      0x1996 ; _printf_core + 394
        0x0000198c:    202b        +       MOVS     r0,#0x2b
        0x0000198e:    466a        jF      MOV      r2,sp
        0x00001990:    7410        .t      STRB     r0,[r2,#0x10]
        0x00001992:    2001        .       MOVS     r0,#1
        0x00001994:    e03c        <.      B        0x1a10 ; _printf_core + 516
        0x00001996:    07e8        ..      LSLS     r0,r5,#31
        0x00001998:    d03a        :.      BEQ      0x1a10 ; _printf_core + 516
        0x0000199a:    2020                MOVS     r0,#0x20
        0x0000199c:    e7f7        ..      B        0x198e ; _printf_core + 386
        0x0000199e:    200a        .       MOVS     r0,#0xa
        0x000019a0:    e000        ..      B        0x19a4 ; _printf_core + 408
        0x000019a2:    2010        .       MOVS     r0,#0x10
        0x000019a4:    2100        .!      MOVS     r1,#0
        0x000019a6:    9103        ..      STR      r1,[sp,#0xc]
        0x000019a8:    9002        ..      STR      r0,[sp,#8]
        0x000019aa:    e007        ..      B        0x19bc ; _printf_core + 432
        0x000019ac:    2010        .       MOVS     r0,#0x10
        0x000019ae:    9002        ..      STR      r0,[sp,#8]
        0x000019b0:    2100        .!      MOVS     r1,#0
        0x000019b2:    2004        .       MOVS     r0,#4
        0x000019b4:    4305        .C      ORRS     r5,r5,r0
        0x000019b6:    2008        .       MOVS     r0,#8
        0x000019b8:    9103        ..      STR      r1,[sp,#0xc]
        0x000019ba:    9000        ..      STR      r0,[sp,#0]
        0x000019bc:    0268        h.      LSLS     r0,r5,#9
        0x000019be:    0f40        @.      LSRS     r0,r0,#29
        0x000019c0:    2802        .(      CMP      r0,#2
        0x000019c2:    d010        ..      BEQ      0x19e6 ; _printf_core + 474
        0x000019c4:    cf01        ..      LDM      r7!,{r0}
        0x000019c6:    2100        .!      MOVS     r1,#0
        0x000019c8:    4684        .F      MOV      r12,r0
        0x000019ca:    2000        .       MOVS     r0,#0
        0x000019cc:    900d        ..      STR      r0,[sp,#0x34]
        0x000019ce:    0728        (.      LSLS     r0,r5,#28
        0x000019d0:    d51f        ..      BPL      0x1a12 ; _printf_core + 518
        0x000019d2:    4670        pF      MOV      r0,lr
        0x000019d4:    2870        p(      CMP      r0,#0x70
        0x000019d6:    d00c        ..      BEQ      0x19f2 ; _printf_core + 486
        0x000019d8:    9a02        ..      LDR      r2,[sp,#8]
        0x000019da:    2010        .       MOVS     r0,#0x10
        0x000019dc:    9b03        ..      LDR      r3,[sp,#0xc]
        0x000019de:    4042        B@      EORS     r2,r2,r0
        0x000019e0:    431a        .C      ORRS     r2,r2,r3
        0x000019e2:    d00c        ..      BEQ      0x19fe ; _printf_core + 498
        0x000019e4:    e015        ..      B        0x1a12 ; _printf_core + 518
        0x000019e6:    1dff        ..      ADDS     r7,r7,#7
        0x000019e8:    08ff        ..      LSRS     r7,r7,#3
        0x000019ea:    00ff        ..      LSLS     r7,r7,#3
        0x000019ec:    cf03        ..      LDM      r7!,{r0,r1}
        0x000019ee:    4684        .F      MOV      r12,r0
        0x000019f0:    e7eb        ..      B        0x19ca ; _printf_core + 446
        0x000019f2:    2040        @       MOVS     r0,#0x40
        0x000019f4:    466a        jF      MOV      r2,sp
        0x000019f6:    7410        .t      STRB     r0,[r2,#0x10]
        0x000019f8:    2001        .       MOVS     r0,#1
        0x000019fa:    900d        ..      STR      r0,[sp,#0x34]
        0x000019fc:    e00c        ..      B        0x1a18 ; _printf_core + 524
        0x000019fe:    4660        `F      MOV      r0,r12
        0x00001a00:    4308        .C      ORRS     r0,r0,r1
        0x00001a02:    d006        ..      BEQ      0x1a12 ; _printf_core + 518
        0x00001a04:    2030        0       MOVS     r0,#0x30
        0x00001a06:    466a        jF      MOV      r2,sp
        0x00001a08:    7410        .t      STRB     r0,[r2,#0x10]
        0x00001a0a:    4670        pF      MOV      r0,lr
        0x00001a0c:    7450        Pt      STRB     r0,[r2,#0x11]
        0x00001a0e:    2002        .       MOVS     r0,#2
        0x00001a10:    900d        ..      STR      r0,[sp,#0x34]
        0x00001a12:    4670        pF      MOV      r0,lr
        0x00001a14:    2858        X(      CMP      r0,#0x58
        0x00001a16:    d004        ..      BEQ      0x1a22 ; _printf_core + 534
        0x00001a18:    a029        ).      ADR      r0,{pc}+0xa8 ; 0x1ac0
        0x00001a1a:    9001        ..      STR      r0,[sp,#4]
        0x00001a1c:    a80d        ..      ADD      r0,sp,#0x34
        0x00001a1e:    900e        ..      STR      r0,[sp,#0x38]
        0x00001a20:    e00d        ..      B        0x1a3e ; _printf_core + 562
        0x00001a22:    a02c        ,.      ADR      r0,{pc}+0xb2 ; 0x1ad4
        0x00001a24:    e7f9        ..      B        0x1a1a ; _printf_core + 526
        0x00001a26:    4660        `F      MOV      r0,r12
        0x00001a28:    9b03        ..      LDR      r3,[sp,#0xc]
        0x00001a2a:    9a02        ..      LDR      r2,[sp,#8]
        0x00001a2c:    f7fffe2e    ....    BL       __aeabi_uldivmod ; 0x168c
        0x00001a30:    9b01        ..      LDR      r3,[sp,#4]
        0x00001a32:    4684        .F      MOV      r12,r0
        0x00001a34:    5c9b        .\      LDRB     r3,[r3,r2]
        0x00001a36:    9a0e        ..      LDR      r2,[sp,#0x38]
        0x00001a38:    1e52        R.      SUBS     r2,r2,#1
        0x00001a3a:    920e        ..      STR      r2,[sp,#0x38]
        0x00001a3c:    7013        .p      STRB     r3,[r2,#0]
        0x00001a3e:    4660        `F      MOV      r0,r12
        0x00001a40:    4308        .C      ORRS     r0,r0,r1
        0x00001a42:    d1f0        ..      BNE      0x1a26 ; _printf_core + 538
        0x00001a44:    980e        ..      LDR      r0,[sp,#0x38]
        0x00001a46:    a905        ..      ADD      r1,sp,#0x14
        0x00001a48:    1a08        ..      SUBS     r0,r1,r0
        0x00001a4a:    3020         0      ADDS     r0,r0,#0x20
        0x00001a4c:    9001        ..      STR      r0,[sp,#4]
        0x00001a4e:    0768        h.      LSLS     r0,r5,#29
        0x00001a50:    d501        ..      BPL      0x1a56 ; _printf_core + 586
        0x00001a52:    9800        ..      LDR      r0,[sp,#0]
        0x00001a54:    e001        ..      B        0x1a5a ; _printf_core + 590
        0x00001a56:    2001        .       MOVS     r0,#1
        0x00001a58:    9000        ..      STR      r0,[sp,#0]
        0x00001a5a:    9901        ..      LDR      r1,[sp,#4]
        0x00001a5c:    4288        .B      CMP      r0,r1
        0x00001a5e:    dd03        ..      BLE      0x1a68 ; _printf_core + 604
        0x00001a60:    4601        .F      MOV      r1,r0
        0x00001a62:    9801        ..      LDR      r0,[sp,#4]
        0x00001a64:    1a08        ..      SUBS     r0,r1,r0
        0x00001a66:    e000        ..      B        0x1a6a ; _printf_core + 606
        0x00001a68:    2000        .       MOVS     r0,#0
        0x00001a6a:    2500        .%      MOVS     r5,#0
        0x00001a6c:    9000        ..      STR      r0,[sp,#0]
        0x00001a6e:    e006        ..      B        0x1a7e ; _printf_core + 626
        0x00001a70:    a804        ..      ADD      r0,sp,#0x10
        0x00001a72:    9a12        ..      LDR      r2,[sp,#0x48]
        0x00001a74:    5d40        @]      LDRB     r0,[r0,r5]
        0x00001a76:    9911        ..      LDR      r1,[sp,#0x44]
        0x00001a78:    4790        .G      BLX      r2
        0x00001a7a:    1c6d        m.      ADDS     r5,r5,#1
        0x00001a7c:    1c76        v.      ADDS     r6,r6,#1
        0x00001a7e:    980d        ..      LDR      r0,[sp,#0x34]
        0x00001a80:    4285        .B      CMP      r5,r0
        0x00001a82:    dbf5        ..      BLT      0x1a70 ; _printf_core + 612
        0x00001a84:    e004        ..      B        0x1a90 ; _printf_core + 644
        0x00001a86:    9a12        ..      LDR      r2,[sp,#0x48]
        0x00001a88:    2030        0       MOVS     r0,#0x30
        0x00001a8a:    9911        ..      LDR      r1,[sp,#0x44]
        0x00001a8c:    4790        .G      BLX      r2
        0x00001a8e:    1c76        v.      ADDS     r6,r6,#1
        0x00001a90:    9900        ..      LDR      r1,[sp,#0]
        0x00001a92:    1e48        H.      SUBS     r0,r1,#1
        0x00001a94:    9000        ..      STR      r0,[sp,#0]
        0x00001a96:    2900        .)      CMP      r1,#0
        0x00001a98:    dcf5        ..      BGT      0x1a86 ; _printf_core + 634
        0x00001a9a:    e008        ..      B        0x1aae ; _printf_core + 674
        0x00001a9c:    980e        ..      LDR      r0,[sp,#0x38]
        0x00001a9e:    990e        ..      LDR      r1,[sp,#0x38]
        0x00001aa0:    7800        .x      LDRB     r0,[r0,#0]
        0x00001aa2:    1c49        I.      ADDS     r1,r1,#1
        0x00001aa4:    910e        ..      STR      r1,[sp,#0x38]
        0x00001aa6:    9a12        ..      LDR      r2,[sp,#0x48]
        0x00001aa8:    9911        ..      LDR      r1,[sp,#0x44]
        0x00001aaa:    4790        .G      BLX      r2
        0x00001aac:    1c76        v.      ADDS     r6,r6,#1
        0x00001aae:    9901        ..      LDR      r1,[sp,#4]
        0x00001ab0:    1e48        H.      SUBS     r0,r1,#1
        0x00001ab2:    9001        ..      STR      r0,[sp,#4]
        0x00001ab4:    2900        .)      CMP      r1,#0
        0x00001ab6:    dcf1        ..      BGT      0x1a9c ; _printf_core + 656
        0x00001ab8:    1c64        d.      ADDS     r4,r4,#1
        0x00001aba:    e6b4        ..      B        0x1826 ; _printf_core + 26
    $d
        0x00001abc:    00012809    .(..    DCD    75785
        0x00001ac0:    33323130    0123    DCD    858927408
        0x00001ac4:    37363534    4567    DCD    926299444
        0x00001ac8:    62613938    89ab    DCD    1650538808
        0x00001acc:    66656463    cdef    DCD    1717920867
        0x00001ad0:    00000000    ....    DCD    0
        0x00001ad4:    33323130    0123    DCD    858927408
        0x00001ad8:    37363534    4567    DCD    926299444
        0x00001adc:    42413938    89AB    DCD    1111570744
        0x00001ae0:    46454443    CDEF    DCD    1178944579
        0x00001ae4:    00000000    ....    DCD    0
    $d.realdata
    .constdata
    unLED_BLINK_PATTERN_TABLE
        0x00001ae8:    00000190    ....    DCD    400
        0x00001aec:    00000190    ....    DCD    400
        0x00001af0:    00000320     ...    DCD    800
        0x00001af4:    00000320     ...    DCD    800
        0x00001af8:    00000320     ...    DCD    800
        0x00001afc:    00000320     ...    DCD    800
        0x00001b00:    000004b0    ....    DCD    1200
        0x00001b04:    00000000    ....    DCD    0
    Region$$Table$$Base
        0x00001b08:    00001b28    (...    DCD    6952
        0x00001b0c:    20000000    ...     DCD    536870912
        0x00001b10:    00000288    ....    DCD    648
        0x00001b14:    000017ee    ....    DCD    6126
        0x00001b18:    00001db0    ....    DCD    7600
        0x00001b1c:    20000288    ...     DCD    536871560
        0x00001b20:    00000238    8...    DCD    568
        0x00001b24:    000017fe    ....    DCD    6142
    Region$$Table$$Limit

** Section #2 'ER_RW' (SHT_PROGBITS) [SHF_ALLOC + SHF_WRITE]
    Size   : 648 bytes (alignment 4)
    Address: 0x20000000


** Section #3 'ER_ZI' (SHT_NOBITS) [SHF_ALLOC + SHF_WRITE]
    Size   : 568 bytes (alignment 8)
    Address: 0x20000288


** Section #4 '.debug_abbrev' (SHT_PROGBITS)
    Size   : 1476 bytes


** Section #5 '.debug_frame' (SHT_PROGBITS)
    Size   : 3320 bytes


** Section #6 '.debug_info' (SHT_PROGBITS)
    Size   : 37208 bytes


** Section #7 '.debug_line' (SHT_PROGBITS)
    Size   : 11368 bytes


** Section #8 '.debug_loc' (SHT_PROGBITS)
    Size   : 7248 bytes


** Section #9 '.debug_macinfo' (SHT_PROGBITS)
    Size   : 190084 bytes


** Section #10 '.debug_pubnames' (SHT_PROGBITS)
    Size   : 3642 bytes


** Section #11 '.symtab' (SHT_SYMTAB)
    Size   : 7104 bytes (alignment 4)
    String table #12 '.strtab'
    Last local symbol no. 217


** Section #12 '.strtab' (SHT_STRTAB)
    Size   : 7156 bytes


** Section #13 '.note' (SHT_NOTE)
    Size   : 28 bytes (alignment 4)


** Section #14 '.comment' (SHT_PROGBITS)
    Size   : 27152 bytes


** Section #15 '.shstrtab' (SHT_STRTAB)
    Size   : 156 bytes


