
========================================================================

** ELF Header Information

    File Name: .\obj\Power.axf

    Machine class: ELFCLASS32 (32-bit)
    Data encoding: ELFDATA2LSB (Little endian)
    Header version: EV_CURRENT (Current version)
    Operating System ABI: none
    ABI Version: 0
    File Type: ET_EXEC (Executable) (2)
    Machine: EM_ARM (ARM)

    Image Entry point: 0x00001775
    Flags: EF_ARM_HASENTRY + EF_ARM_ABI_FLOAT_SOFT (0x05000202)

    ARM ELF revision: 5 (ABI version 2)

    Conforms to Soft float procedure-call standard

    Built with
    Component: ARM Compiler 5.06 update 1 (build 61) Tool: armasm [4d35a5]
    Component: ARM Compiler 5.06 update 1 (build 61) Tool: armlink [4d35a8]

    Header size: 52 bytes (0x34)
    Program header entry size: 32 bytes (0x20)
    Section header entry size: 40 bytes (0x28)

    Program header entries: 1
    Section header entries: 16

    Program header offset: 273712 (0x00042d30)
    Section header offset: 273744 (0x00042d50)

    Section header string table index: 15

========================================================================

** Program header #0 (PT_LOAD) [PF_X + PF_W + PF_R + PF_ARM_ENTRY]
    Size : 8664 bytes (8112 bytes in file)
    Virtual address: 0x00000000 (Alignment 8)


========================================================================

** Section #1 'ER_RO' (SHT_PROGBITS) [SHF_ALLOC + SHF_EXECINSTR]
    Size   : 7456 bytes (alignment 4)
    Address: 0x00000000

    $d.realdata
    RESET
    __Vectors
        0x00000000:    200004b8    ...     DCD    536872120
        0x00000004:    00001775    u...    DCD    6005
        0x00000008:    00001779    y...    DCD    6009
        0x0000000c:    0000177b    {...    DCD    6011
        0x00000010:    00000000    ....    DCD    0
        0x00000014:    00000000    ....    DCD    0
        0x00000018:    00000000    ....    DCD    0
        0x0000001c:    00000000    ....    DCD    0
        0x00000020:    00000000    ....    DCD    0
        0x00000024:    00000000    ....    DCD    0
        0x00000028:    00000000    ....    DCD    0
        0x0000002c:    0000177d    }...    DCD    6013
        0x00000030:    00000000    ....    DCD    0
        0x00000034:    00000000    ....    DCD    0
        0x00000038:    0000177f    ....    DCD    6015
        0x0000003c:    00001597    ....    DCD    5527
        0x00000040:    00001783    ....    DCD    6019
        0x00000044:    00001783    ....    DCD    6019
        0x00000048:    00001783    ....    DCD    6019
        0x0000004c:    00001783    ....    DCD    6019
        0x00000050:    00001783    ....    DCD    6019
        0x00000054:    00001783    ....    DCD    6019
        0x00000058:    00001783    ....    DCD    6019
        0x0000005c:    00001783    ....    DCD    6019
        0x00000060:    000012dd    ....    DCD    4829
        0x00000064:    00001399    ....    DCD    5017
        0x00000068:    00001783    ....    DCD    6019
        0x0000006c:    00001783    ....    DCD    6019
        0x00000070:    00001783    ....    DCD    6019
        0x00000074:    00001783    ....    DCD    6019
        0x00000078:    00001527    '...    DCD    5415
        0x0000007c:    00001783    ....    DCD    6019
        0x00000080:    00001783    ....    DCD    6019
        0x00000084:    00001783    ....    DCD    6019
        0x00000088:    00001783    ....    DCD    6019
        0x0000008c:    00001783    ....    DCD    6019
        0x00000090:    00001783    ....    DCD    6019
        0x00000094:    00001783    ....    DCD    6019
        0x00000098:    00001783    ....    DCD    6019
        0x0000009c:    00001783    ....    DCD    6019
        0x000000a0:    00001783    ....    DCD    6019
        0x000000a4:    000013f9    ....    DCD    5113
        0x000000a8:    00001783    ....    DCD    6019
        0x000000ac:    00001783    ....    DCD    6019
        0x000000b0:    00001783    ....    DCD    6019
        0x000000b4:    00001433    3...    DCD    5171
        0x000000b8:    00001783    ....    DCD    6019
        0x000000bc:    00001783    ....    DCD    6019
    $t
    .ARM.Collect$$$$00000000
    .ARM.Collect$$$$00000001
    __main
    _main_stk
        0x000000c0:    4803        .H      LDR      r0,__lit__00000000 ; [0xd0] = 0x200004b8
        0x000000c2:    4685        .F      MOV      sp,r0
    .ARM.Collect$$$$00000004
    _main_scatterload
        0x000000c4:    f001fc7a    ..z.    BL       __scatterload ; 0x19bc
    .ARM.Collect$$$$00000008
    .ARM.Collect$$$$0000000A
    .ARM.Collect$$$$0000000B
    __main_after_scatterload
    _main_clock
    _main_cpp_init
    _main_init
        0x000000c8:    4800        .H      LDR      r0,[pc,#0] ; [0xcc] = 0xe65
        0x000000ca:    4700        .G      BX       r0
    $d
        0x000000cc:    00000e65    e...    DCD    3685
    .ARM.Collect$$$$00002712
    __lit__00000000
    .ARM.Collect$$$$0000000D
    .ARM.Collect$$$$0000000F
    __rt_final_cpp
    __rt_final_exit
        0x000000d0:    200004b8    ...     DCD    536872120
    $t
    .text
    ADC_Open
        0x000000d4:    4830        0H      LDR      r0,[pc,#192] ; [0x198] = 0x400e0000
        0x000000d6:    2100        .!      MOVS     r1,#0
        0x000000d8:    6201        .b      STR      r1,[r0,#0x20]
        0x000000da:    6a41        Aj      LDR      r1,[r0,#0x24]
        0x000000dc:    0a09        ..      LSRS     r1,r1,#8
        0x000000de:    0209        ..      LSLS     r1,r1,#8
        0x000000e0:    4319        .C      ORRS     r1,r1,r3
        0x000000e2:    6241        Ab      STR      r1,[r0,#0x24]
        0x000000e4:    4770        pG      BX       lr
    ADC_Close
        0x000000e6:    2005        .       MOVS     r0,#5
        0x000000e8:    0700        ..      LSLS     r0,r0,#28
        0x000000ea:    68c2        .h      LDR      r2,[r0,#0xc]
        0x000000ec:    2101        .!      MOVS     r1,#1
        0x000000ee:    0709        ..      LSLS     r1,r1,#28
        0x000000f0:    430a        .C      ORRS     r2,r2,r1
        0x000000f2:    60c2        .`      STR      r2,[r0,#0xc]
        0x000000f4:    68c2        .h      LDR      r2,[r0,#0xc]
        0x000000f6:    438a        .C      BICS     r2,r2,r1
        0x000000f8:    60c2        .`      STR      r2,[r0,#0xc]
        0x000000fa:    4770        pG      BX       lr
    ADC_EnableHWTrigger
        0x000000fc:    b510        ..      PUSH     {r4,lr}
        0x000000fe:    4826        &H      LDR      r0,[pc,#152] ; [0x198] = 0x400e0000
        0x00000100:    6a03        .j      LDR      r3,[r0,#0x20]
        0x00000102:    24ff        .$      MOVS     r4,#0xff
        0x00000104:    3471        q4      ADDS     r4,r4,#0x71
        0x00000106:    43a3        .C      BICS     r3,r3,r4
        0x00000108:    6203        .b      STR      r3,[r0,#0x20]
        0x0000010a:    1583        ..      ASRS     r3,r0,#22
        0x0000010c:    2900        .)      CMP      r1,#0
        0x0000010e:    d009        ..      BEQ      0x124 ; ADC_EnableHWTrigger + 40
        0x00000110:    6b44        Dk      LDR      r4,[r0,#0x34]
        0x00000112:    0a24        $.      LSRS     r4,r4,#8
        0x00000114:    0224        $.      LSLS     r4,r4,#8
        0x00000116:    4314        .C      ORRS     r4,r4,r2
        0x00000118:    6344        Dc      STR      r4,[r0,#0x34]
        0x0000011a:    6a02        .j      LDR      r2,[r0,#0x20]
        0x0000011c:    4319        .C      ORRS     r1,r1,r3
        0x0000011e:    430a        .C      ORRS     r2,r2,r1
        0x00000120:    6202        .b      STR      r2,[r0,#0x20]
        0x00000122:    bd10        ..      POP      {r4,pc}
        0x00000124:    6a01        .j      LDR      r1,[r0,#0x20]
        0x00000126:    431a        .C      ORRS     r2,r2,r3
        0x00000128:    4311        .C      ORRS     r1,r1,r2
        0x0000012a:    6201        .b      STR      r1,[r0,#0x20]
        0x0000012c:    bd10        ..      POP      {r4,pc}
    ADC_DisableHWTrigger
        0x0000012e:    481a        .H      LDR      r0,[pc,#104] ; [0x198] = 0x400e0000
        0x00000130:    6a01        .j      LDR      r1,[r0,#0x20]
        0x00000132:    22ff        ."      MOVS     r2,#0xff
        0x00000134:    3271        q2      ADDS     r2,r2,#0x71
        0x00000136:    4391        .C      BICS     r1,r1,r2
        0x00000138:    6201        .b      STR      r1,[r0,#0x20]
        0x0000013a:    4770        pG      BX       lr
    ADC_SetExtraSampleTime
        0x0000013c:    4816        .H      LDR      r0,[pc,#88] ; [0x198] = 0x400e0000
        0x0000013e:    6b81        .k      LDR      r1,[r0,#0x38]
        0x00000140:    0909        ..      LSRS     r1,r1,#4
        0x00000142:    0109        ..      LSLS     r1,r1,#4
        0x00000144:    4311        .C      ORRS     r1,r1,r2
        0x00000146:    6381        .c      STR      r1,[r0,#0x38]
        0x00000148:    4770        pG      BX       lr
    ADC_EnableInt
        0x0000014a:    07cb        ..      LSLS     r3,r1,#31
        0x0000014c:    4812        .H      LDR      r0,[pc,#72] ; [0x198] = 0x400e0000
        0x0000014e:    2202        ."      MOVS     r2,#2
        0x00000150:    2b00        .+      CMP      r3,#0
        0x00000152:    d002        ..      BEQ      0x15a ; ADC_EnableInt + 16
        0x00000154:    6a03        .j      LDR      r3,[r0,#0x20]
        0x00000156:    4313        .C      ORRS     r3,r3,r2
        0x00000158:    6203        .b      STR      r3,[r0,#0x20]
        0x0000015a:    078b        ..      LSLS     r3,r1,#30
        0x0000015c:    d502        ..      BPL      0x164 ; ADC_EnableInt + 26
        0x0000015e:    6a83        .j      LDR      r3,[r0,#0x28]
        0x00000160:    4313        .C      ORRS     r3,r3,r2
        0x00000162:    6283        .b      STR      r3,[r0,#0x28]
        0x00000164:    0749        I.      LSLS     r1,r1,#29
        0x00000166:    d502        ..      BPL      0x16e ; ADC_EnableInt + 36
        0x00000168:    6ac1        .j      LDR      r1,[r0,#0x2c]
        0x0000016a:    4311        .C      ORRS     r1,r1,r2
        0x0000016c:    62c1        .b      STR      r1,[r0,#0x2c]
        0x0000016e:    4770        pG      BX       lr
    ADC_DisableInt
        0x00000170:    07cb        ..      LSLS     r3,r1,#31
        0x00000172:    4809        .H      LDR      r0,[pc,#36] ; [0x198] = 0x400e0000
        0x00000174:    2202        ."      MOVS     r2,#2
        0x00000176:    2b00        .+      CMP      r3,#0
        0x00000178:    d002        ..      BEQ      0x180 ; ADC_DisableInt + 16
        0x0000017a:    6a03        .j      LDR      r3,[r0,#0x20]
        0x0000017c:    4393        .C      BICS     r3,r3,r2
        0x0000017e:    6203        .b      STR      r3,[r0,#0x20]
        0x00000180:    078b        ..      LSLS     r3,r1,#30
        0x00000182:    d502        ..      BPL      0x18a ; ADC_DisableInt + 26
        0x00000184:    6a83        .j      LDR      r3,[r0,#0x28]
        0x00000186:    4393        .C      BICS     r3,r3,r2
        0x00000188:    6283        .b      STR      r3,[r0,#0x28]
        0x0000018a:    0749        I.      LSLS     r1,r1,#29
        0x0000018c:    d502        ..      BPL      0x194 ; ADC_DisableInt + 36
        0x0000018e:    6ac1        .j      LDR      r1,[r0,#0x2c]
        0x00000190:    4391        .C      BICS     r1,r1,r2
        0x00000192:    62c1        .b      STR      r1,[r0,#0x2c]
        0x00000194:    4770        pG      BX       lr
    $d
        0x00000196:    0000        ..      DCW    0
        0x00000198:    400e0000    ...@    DCD    1074659328
    $t
    .text
    CLK_DisableCKO
        0x0000019c:    485c        \H      LDR      r0,[pc,#368] ; [0x310] = 0x50000200
        0x0000019e:    6881        .h      LDR      r1,[r0,#8]
        0x000001a0:    2240        @"      MOVS     r2,#0x40
        0x000001a2:    4391        .C      BICS     r1,r1,r2
        0x000001a4:    6081        .`      STR      r1,[r0,#8]
        0x000001a6:    4770        pG      BX       lr
    CLK_EnableCKO
        0x000001a8:    0152        R.      LSLS     r2,r2,#5
        0x000001aa:    430a        .C      ORRS     r2,r2,r1
        0x000001ac:    2110        .!      MOVS     r1,#0x10
        0x000001ae:    430a        .C      ORRS     r2,r2,r1
        0x000001b0:    4957        WI      LDR      r1,[pc,#348] ; [0x310] = 0x50000200
        0x000001b2:    624a        Jb      STR      r2,[r1,#0x24]
        0x000001b4:    688a        .h      LDR      r2,[r1,#8]
        0x000001b6:    2340        @#      MOVS     r3,#0x40
        0x000001b8:    431a        .C      ORRS     r2,r2,r3
        0x000001ba:    608a        .`      STR      r2,[r1,#8]
        0x000001bc:    69ca        .i      LDR      r2,[r1,#0x1c]
        0x000001be:    230c        .#      MOVS     r3,#0xc
        0x000001c0:    439a        .C      BICS     r2,r2,r3
        0x000001c2:    4302        .C      ORRS     r2,r2,r0
        0x000001c4:    61ca        .a      STR      r2,[r1,#0x1c]
        0x000001c6:    4770        pG      BX       lr
    CLK_PowerDown
        0x000001c8:    4952        RI      LDR      r1,[pc,#328] ; [0x314] = 0xe000ed00
        0x000001ca:    2004        .       MOVS     r0,#4
        0x000001cc:    6108        .a      STR      r0,[r1,#0x10]
        0x000001ce:    4850        PH      LDR      r0,[pc,#320] ; [0x310] = 0x50000200
        0x000001d0:    6801        .h      LDR      r1,[r0,#0]
        0x000001d2:    22c0        ."      MOVS     r2,#0xc0
        0x000001d4:    4311        .C      ORRS     r1,r1,r2
        0x000001d6:    6001        .`      STR      r1,[r0,#0]
        0x000001d8:    bf30        0.      WFI      
        0x000001da:    4770        pG      BX       lr
    CLK_Idle
        0x000001dc:    484c        LH      LDR      r0,[pc,#304] ; [0x310] = 0x50000200
        0x000001de:    6801        .h      LDR      r1,[r0,#0]
        0x000001e0:    22c0        ."      MOVS     r2,#0xc0
        0x000001e2:    4311        .C      ORRS     r1,r1,r2
        0x000001e4:    6001        .`      STR      r1,[r0,#0]
        0x000001e6:    bf30        0.      WFI      
        0x000001e8:    4770        pG      BX       lr
    CLK_GetHXTFreq
        0x000001ea:    4849        IH      LDR      r0,[pc,#292] ; [0x310] = 0x50000200
        0x000001ec:    6800        .h      LDR      r0,[r0,#0]
        0x000001ee:    07c0        ..      LSLS     r0,r0,#31
        0x000001f0:    d000        ..      BEQ      0x1f4 ; CLK_GetHXTFreq + 10
        0x000001f2:    4849        IH      LDR      r0,[pc,#292] ; [0x318] = 0xb71b00
        0x000001f4:    4770        pG      BX       lr
    CLK_GetLXTFreq
        0x000001f6:    4846        FH      LDR      r0,[pc,#280] ; [0x310] = 0x50000200
        0x000001f8:    6800        .h      LDR      r0,[r0,#0]
        0x000001fa:    0780        ..      LSLS     r0,r0,#30
        0x000001fc:    d502        ..      BPL      0x204 ; CLK_GetLXTFreq + 14
        0x000001fe:    2001        .       MOVS     r0,#1
        0x00000200:    03c0        ..      LSLS     r0,r0,#15
        0x00000202:    4770        pG      BX       lr
        0x00000204:    2000        .       MOVS     r0,#0
        0x00000206:    4770        pG      BX       lr
    CLK_GetHCLKFreq
        0x00000208:    b510        ..      PUSH     {r4,lr}
        0x0000020a:    f001fa8b    ....    BL       SystemCoreClockUpdate ; 0x1724
        0x0000020e:    4843        CH      LDR      r0,[pc,#268] ; [0x31c] = 0x20000284
        0x00000210:    6800        .h      LDR      r0,[r0,#0]
        0x00000212:    bd10        ..      POP      {r4,pc}
    CLK_GetCPUFreq
        0x00000214:    b510        ..      PUSH     {r4,lr}
        0x00000216:    f001fa85    ....    BL       SystemCoreClockUpdate ; 0x1724
        0x0000021a:    4840        @H      LDR      r0,[pc,#256] ; [0x31c] = 0x20000284
        0x0000021c:    6800        .h      LDR      r0,[r0,#0]
        0x0000021e:    bd10        ..      POP      {r4,pc}
    CLK_SetHCLK
        0x00000220:    4a3b        ;J      LDR      r2,[pc,#236] ; [0x310] = 0x50000200
        0x00000222:    6913        .i      LDR      r3,[r2,#0x10]
        0x00000224:    08db        ..      LSRS     r3,r3,#3
        0x00000226:    00db        ..      LSLS     r3,r3,#3
        0x00000228:    4303        .C      ORRS     r3,r3,r0
        0x0000022a:    6113        .a      STR      r3,[r2,#0x10]
        0x0000022c:    6990        .i      LDR      r0,[r2,#0x18]
        0x0000022e:    0900        ..      LSRS     r0,r0,#4
        0x00000230:    0100        ..      LSLS     r0,r0,#4
        0x00000232:    4308        .C      ORRS     r0,r0,r1
        0x00000234:    6190        .a      STR      r0,[r2,#0x18]
        0x00000236:    4770        pG      BX       lr
    CLK_SetModuleClock
        0x00000238:    b570        p.      PUSH     {r4-r6,lr}
        0x0000023a:    0e43        C.      LSRS     r3,r0,#25
        0x0000023c:    071b        ..      LSLS     r3,r3,#28
        0x0000023e:    d00e        ..      BEQ      0x25e ; CLK_SetModuleClock + 38
        0x00000240:    0043        C.      LSLS     r3,r0,#1
        0x00000242:    4c33        3L      LDR      r4,[pc,#204] ; [0x310] = 0x50000200
        0x00000244:    0f9b        ..      LSRS     r3,r3,#30
        0x00000246:    009b        ..      LSLS     r3,r3,#2
        0x00000248:    3410        .4      ADDS     r4,r4,#0x10
        0x0000024a:    191b        ..      ADDS     r3,r3,r4
        0x0000024c:    681c        .h      LDR      r4,[r3,#0]
        0x0000024e:    00c5        ..      LSLS     r5,r0,#3
        0x00000250:    0f2d        -.      LSRS     r5,r5,#28
        0x00000252:    01c6        ..      LSLS     r6,r0,#7
        0x00000254:    0ef6        ..      LSRS     r6,r6,#27
        0x00000256:    40b5        .@      LSLS     r5,r5,r6
        0x00000258:    43ac        .C      BICS     r4,r4,r5
        0x0000025a:    430c        .C      ORRS     r4,r4,r1
        0x0000025c:    601c        .`      STR      r4,[r3,#0]
        0x0000025e:    0a83        ..      LSRS     r3,r0,#10
        0x00000260:    0619        ..      LSLS     r1,r3,#24
        0x00000262:    0e09        ..      LSRS     r1,r1,#24
        0x00000264:    d00d        ..      BEQ      0x282 ; CLK_SetModuleClock + 74
        0x00000266:    0301        ..      LSLS     r1,r0,#12
        0x00000268:    4c29        )L      LDR      r4,[pc,#164] ; [0x310] = 0x50000200
        0x0000026a:    0f89        ..      LSRS     r1,r1,#30
        0x0000026c:    0089        ..      LSLS     r1,r1,#2
        0x0000026e:    3418        .4      ADDS     r4,r4,#0x18
        0x00000270:    1909        ..      ADDS     r1,r1,r4
        0x00000272:    680c        .h      LDR      r4,[r1,#0]
        0x00000274:    0580        ..      LSLS     r0,r0,#22
        0x00000276:    b2db        ..      UXTB     r3,r3
        0x00000278:    0ec0        ..      LSRS     r0,r0,#27
        0x0000027a:    4083        .@      LSLS     r3,r3,r0
        0x0000027c:    439c        .C      BICS     r4,r4,r3
        0x0000027e:    4314        .C      ORRS     r4,r4,r2
        0x00000280:    600c        .`      STR      r4,[r1,#0]
        0x00000282:    bd70        p.      POP      {r4-r6,pc}
    CLK_SetSysTickClockSrc
        0x00000284:    4a22        "J      LDR      r2,[pc,#136] ; [0x310] = 0x50000200
        0x00000286:    6911        .i      LDR      r1,[r2,#0x10]
        0x00000288:    2338        8#      MOVS     r3,#0x38
        0x0000028a:    4399        .C      BICS     r1,r1,r3
        0x0000028c:    4301        .C      ORRS     r1,r1,r0
        0x0000028e:    6111        .a      STR      r1,[r2,#0x10]
        0x00000290:    4770        pG      BX       lr
    CLK_EnableXtalRC
        0x00000292:    491f        .I      LDR      r1,[pc,#124] ; [0x310] = 0x50000200
        0x00000294:    680a        .h      LDR      r2,[r1,#0]
        0x00000296:    4302        .C      ORRS     r2,r2,r0
        0x00000298:    600a        .`      STR      r2,[r1,#0]
        0x0000029a:    4770        pG      BX       lr
    CLK_DisableXtalRC
        0x0000029c:    491c        .I      LDR      r1,[pc,#112] ; [0x310] = 0x50000200
        0x0000029e:    680a        .h      LDR      r2,[r1,#0]
        0x000002a0:    4382        .C      BICS     r2,r2,r0
        0x000002a2:    600a        .`      STR      r2,[r1,#0]
        0x000002a4:    4770        pG      BX       lr
    CLK_EnableModuleClock
        0x000002a6:    0fc1        ..      LSRS     r1,r0,#31
        0x000002a8:    008a        ..      LSLS     r2,r1,#2
        0x000002aa:    4919        .I      LDR      r1,[pc,#100] ; [0x310] = 0x50000200
        0x000002ac:    1851        Q.      ADDS     r1,r2,r1
        0x000002ae:    688a        .h      LDR      r2,[r1,#8]
        0x000002b0:    06c3        ..      LSLS     r3,r0,#27
        0x000002b2:    0edb        ..      LSRS     r3,r3,#27
        0x000002b4:    2001        .       MOVS     r0,#1
        0x000002b6:    4098        .@      LSLS     r0,r0,r3
        0x000002b8:    4302        .C      ORRS     r2,r2,r0
        0x000002ba:    608a        .`      STR      r2,[r1,#8]
        0x000002bc:    4770        pG      BX       lr
    CLK_DisableModuleClock
        0x000002be:    0fc1        ..      LSRS     r1,r0,#31
        0x000002c0:    008a        ..      LSLS     r2,r1,#2
        0x000002c2:    4913        .I      LDR      r1,[pc,#76] ; [0x310] = 0x50000200
        0x000002c4:    1851        Q.      ADDS     r1,r2,r1
        0x000002c6:    688a        .h      LDR      r2,[r1,#8]
        0x000002c8:    06c3        ..      LSLS     r3,r0,#27
        0x000002ca:    0edb        ..      LSRS     r3,r3,#27
        0x000002cc:    2001        .       MOVS     r0,#1
        0x000002ce:    4098        .@      LSLS     r0,r0,r3
        0x000002d0:    4382        .C      BICS     r2,r2,r0
        0x000002d2:    608a        .`      STR      r2,[r1,#8]
        0x000002d4:    4770        pG      BX       lr
    CLK_SysTickDelay
        0x000002d6:    4912        .I      LDR      r1,[pc,#72] ; [0x320] = 0x20000288
        0x000002d8:    6809        .h      LDR      r1,[r1,#0]
        0x000002da:    4348        HC      MULS     r0,r1,r0
        0x000002dc:    4911        .I      LDR      r1,[pc,#68] ; [0x324] = 0xe000e000
        0x000002de:    6148        Ha      STR      r0,[r1,#0x14]
        0x000002e0:    2000        .       MOVS     r0,#0
        0x000002e2:    6188        .a      STR      r0,[r1,#0x18]
        0x000002e4:    2005        .       MOVS     r0,#5
        0x000002e6:    6108        .a      STR      r0,[r1,#0x10]
        0x000002e8:    6908        .i      LDR      r0,[r1,#0x10]
        0x000002ea:    03c0        ..      LSLS     r0,r0,#15
        0x000002ec:    d5fc        ..      BPL      0x2e8 ; CLK_SysTickDelay + 18
        0x000002ee:    4770        pG      BX       lr
    CLK_WaitClockReady
        0x000002f0:    b510        ..      PUSH     {r4,lr}
        0x000002f2:    211b        .!      MOVS     r1,#0x1b
        0x000002f4:    4604        .F      MOV      r4,r0
        0x000002f6:    0309        ..      LSLS     r1,r1,#12
        0x000002f8:    4b05        .K      LDR      r3,[pc,#20] ; [0x310] = 0x50000200
        0x000002fa:    e003        ..      B        0x304 ; CLK_WaitClockReady + 20
        0x000002fc:    460a        .F      MOV      r2,r1
        0x000002fe:    1e49        I.      SUBS     r1,r1,#1
        0x00000300:    2a00        .*      CMP      r2,#0
        0x00000302:    dd03        ..      BLE      0x30c ; CLK_WaitClockReady + 28
        0x00000304:    68da        .h      LDR      r2,[r3,#0xc]
        0x00000306:    4620         F      MOV      r0,r4
        0x00000308:    4390        .C      BICS     r0,r0,r2
        0x0000030a:    d1f7        ..      BNE      0x2fc ; CLK_WaitClockReady + 12
        0x0000030c:    bd10        ..      POP      {r4,pc}
    $d
        0x0000030e:    0000        ..      DCW    0
        0x00000310:    50000200    ...P    DCD    1342177792
        0x00000314:    e000ed00    ....    DCD    3758157056
        0x00000318:    00b71b00    ....    DCD    12000000
        0x0000031c:    20000284    ...     DCD    536871556
        0x00000320:    20000288    ...     DCD    536871560
        0x00000324:    e000e000    ....    DCD    3758153728
    $t
    .text
    GPIO_SetMode
        0x00000328:    b5f0        ..      PUSH     {r4-r7,lr}
        0x0000032a:    2300        .#      MOVS     r3,#0
        0x0000032c:    2701        .'      MOVS     r7,#1
        0x0000032e:    463c        <F      MOV      r4,r7
        0x00000330:    409c        .@      LSLS     r4,r4,r3
        0x00000332:    420c        .B      TST      r4,r1
        0x00000334:    d008        ..      BEQ      0x348 ; GPIO_SetMode + 32
        0x00000336:    6805        .h      LDR      r5,[r0,#0]
        0x00000338:    005c        \.      LSLS     r4,r3,#1
        0x0000033a:    2603        .&      MOVS     r6,#3
        0x0000033c:    40a6        .@      LSLS     r6,r6,r4
        0x0000033e:    43b5        .C      BICS     r5,r5,r6
        0x00000340:    4616        .F      MOV      r6,r2
        0x00000342:    40a6        .@      LSLS     r6,r6,r4
        0x00000344:    4335        5C      ORRS     r5,r5,r6
        0x00000346:    6005        .`      STR      r5,[r0,#0]
        0x00000348:    1c5b        [.      ADDS     r3,r3,#1
        0x0000034a:    2b08        .+      CMP      r3,#8
        0x0000034c:    d3ef        ..      BCC      0x32e ; GPIO_SetMode + 6
        0x0000034e:    bdf0        ..      POP      {r4-r7,pc}
    GPIO_EnableInt
        0x00000350:    b510        ..      PUSH     {r4,lr}
        0x00000352:    6983        .i      LDR      r3,[r0,#0x18]
        0x00000354:    0e14        ..      LSRS     r4,r2,#24
        0x00000356:    408c        .@      LSLS     r4,r4,r1
        0x00000358:    4323        #C      ORRS     r3,r3,r4
        0x0000035a:    6183        .a      STR      r3,[r0,#0x18]
        0x0000035c:    69c3        .i      LDR      r3,[r0,#0x1c]
        0x0000035e:    0212        ..      LSLS     r2,r2,#8
        0x00000360:    0a12        ..      LSRS     r2,r2,#8
        0x00000362:    408a        .@      LSLS     r2,r2,r1
        0x00000364:    4313        .C      ORRS     r3,r3,r2
        0x00000366:    61c3        .a      STR      r3,[r0,#0x1c]
        0x00000368:    bd10        ..      POP      {r4,pc}
    GPIO_DisableInt
        0x0000036a:    6982        .i      LDR      r2,[r0,#0x18]
        0x0000036c:    2301        .#      MOVS     r3,#1
        0x0000036e:    408b        .@      LSLS     r3,r3,r1
        0x00000370:    439a        .C      BICS     r2,r2,r3
        0x00000372:    6182        .a      STR      r2,[r0,#0x18]
        0x00000374:    69c2        .i      LDR      r2,[r0,#0x1c]
        0x00000376:    4b02        .K      LDR      r3,[pc,#8] ; [0x380] = 0x10001
        0x00000378:    408b        .@      LSLS     r3,r3,r1
        0x0000037a:    439a        .C      BICS     r2,r2,r3
        0x0000037c:    61c2        .a      STR      r2,[r0,#0x1c]
        0x0000037e:    4770        pG      BX       lr
    $d
        0x00000380:    00010001    ....    DCD    65537
    $t
    .text
    PWM_ConfigOutputChannel
        0x00000384:    b5ff        ..      PUSH     {r0-r7,lr}
        0x00000386:    48be        .H      LDR      r0,[pc,#760] ; [0x680] = 0x20000284
        0x00000388:    b083        ..      SUB      sp,sp,#0xc
        0x0000038a:    460e        .F      MOV      r6,r1
        0x0000038c:    6800        .h      LDR      r0,[r0,#0]
        0x0000038e:    4611        .F      MOV      r1,r2
        0x00000390:    9001        ..      STR      r0,[sp,#4]
        0x00000392:    f001f9f9    ....    BL       __aeabi_uidiv ; 0x1788
        0x00000396:    2401        .$      MOVS     r4,#1
        0x00000398:    4dba        .M      LDR      r5,[pc,#744] ; [0x684] = 0xffff
        0x0000039a:    27ff        .'      MOVS     r7,#0xff
        0x0000039c:    9000        ..      STR      r0,[sp,#0]
        0x0000039e:    4621        !F      MOV      r1,r4
        0x000003a0:    9800        ..      LDR      r0,[sp,#0]
        0x000003a2:    f001f9f1    ....    BL       __aeabi_uidiv ; 0x1788
        0x000003a6:    2101        .!      MOVS     r1,#1
        0x000003a8:    0609        ..      LSLS     r1,r1,#24
        0x000003aa:    4288        .B      CMP      r0,r1
        0x000003ac:    d812        ..      BHI      0x3d4 ; PWM_ConfigOutputChannel + 80
        0x000003ae:    1941        A.      ADDS     r1,r0,r5
        0x000003b0:    0209        ..      LSLS     r1,r1,#8
        0x000003b2:    0e0f        ..      LSRS     r7,r1,#24
        0x000003b4:    2f03        ./      CMP      r7,#3
        0x000003b6:    d200        ..      BCS      0x3ba ; PWM_ConfigOutputChannel + 54
        0x000003b8:    2702        .'      MOVS     r7,#2
        0x000003ba:    4639        9F      MOV      r1,r7
        0x000003bc:    f001f9e4    ....    BL       __aeabi_uidiv ; 0x1788
        0x000003c0:    2101        .!      MOVS     r1,#1
        0x000003c2:    0409        ..      LSLS     r1,r1,#16
        0x000003c4:    4288        .B      CMP      r0,r1
        0x000003c6:    d805        ..      BHI      0x3d4 ; PWM_ConfigOutputChannel + 80
        0x000003c8:    2801        .(      CMP      r0,#1
        0x000003ca:    d001        ..      BEQ      0x3d0 ; PWM_ConfigOutputChannel + 76
        0x000003cc:    b285        ..      UXTH     r5,r0
        0x000003ce:    e005        ..      B        0x3dc ; PWM_ConfigOutputChannel + 88
        0x000003d0:    2501        .%      MOVS     r5,#1
        0x000003d2:    e003        ..      B        0x3dc ; PWM_ConfigOutputChannel + 88
        0x000003d4:    0660        `.      LSLS     r0,r4,#25
        0x000003d6:    0e04        ..      LSRS     r4,r0,#24
        0x000003d8:    2c11        .,      CMP      r4,#0x11
        0x000003da:    d3e0        ..      BCC      0x39e ; PWM_ConfigOutputChannel + 26
        0x000003dc:    4639        9F      MOV      r1,r7
        0x000003de:    4361        aC      MULS     r1,r4,r1
        0x000003e0:    4369        iC      MULS     r1,r5,r1
        0x000003e2:    9801        ..      LDR      r0,[sp,#4]
        0x000003e4:    f001f9d0    ....    BL       __aeabi_uidiv ; 0x1788
        0x000003e8:    1e7f        ..      SUBS     r7,r7,#1
        0x000003ea:    1e6d        m.      SUBS     r5,r5,#1
        0x000003ec:    b2fa        ..      UXTB     r2,r7
        0x000003ee:    b2ad        ..      UXTH     r5,r5
        0x000003f0:    9000        ..      STR      r0,[sp,#0]
        0x000003f2:    2c01        .,      CMP      r4,#1
        0x000003f4:    d02a        *.      BEQ      0x44c ; PWM_ConfigOutputChannel + 200
        0x000003f6:    2c02        .,      CMP      r4,#2
        0x000003f8:    d02a        *.      BEQ      0x450 ; PWM_ConfigOutputChannel + 204
        0x000003fa:    2c04        .,      CMP      r4,#4
        0x000003fc:    d02a        *.      BEQ      0x454 ; PWM_ConfigOutputChannel + 208
        0x000003fe:    2c08        .,      CMP      r4,#8
        0x00000400:    d02a        *.      BEQ      0x458 ; PWM_ConfigOutputChannel + 212
        0x00000402:    2003        .       MOVS     r0,#3
        0x00000404:    4ca0        .L      LDR      r4,[pc,#640] ; [0x688] = 0x40040000
        0x00000406:    6823        #h      LDR      r3,[r4,#0]
        0x00000408:    0871        q.      LSRS     r1,r6,#1
        0x0000040a:    00c9        ..      LSLS     r1,r1,#3
        0x0000040c:    27ff        .'      MOVS     r7,#0xff
        0x0000040e:    408f        .@      LSLS     r7,r7,r1
        0x00000410:    43bb        .C      BICS     r3,r3,r7
        0x00000412:    408a        .@      LSLS     r2,r2,r1
        0x00000414:    4313        .C      ORRS     r3,r3,r2
        0x00000416:    6023        #`      STR      r3,[r4,#0]
        0x00000418:    6861        ah      LDR      r1,[r4,#4]
        0x0000041a:    00b6        ..      LSLS     r6,r6,#2
        0x0000041c:    2207        ."      MOVS     r2,#7
        0x0000041e:    40b2        .@      LSLS     r2,r2,r6
        0x00000420:    4391        .C      BICS     r1,r1,r2
        0x00000422:    40b0        .@      LSLS     r0,r0,r6
        0x00000424:    4301        .C      ORRS     r1,r1,r0
        0x00000426:    6061        a`      STR      r1,[r4,#4]
        0x00000428:    68a0        .h      LDR      r0,[r4,#8]
        0x0000042a:    2108        .!      MOVS     r1,#8
        0x0000042c:    40b1        .@      LSLS     r1,r1,r6
        0x0000042e:    4308        .C      ORRS     r0,r0,r1
        0x00000430:    60a0        .`      STR      r0,[r4,#8]
        0x00000432:    9806        ..      LDR      r0,[sp,#0x18]
        0x00000434:    1c69        i.      ADDS     r1,r5,#1
        0x00000436:    4348        HC      MULS     r0,r1,r0
        0x00000438:    2164        d!      MOVS     r1,#0x64
        0x0000043a:    f001f9a5    ....    BL       __aeabi_uidiv ; 0x1788
        0x0000043e:    1931        1.      ADDS     r1,r6,r4
        0x00000440:    1e40        @.      SUBS     r0,r0,#1
        0x00000442:    6248        Hb      STR      r0,[r1,#0x24]
        0x00000444:    60cd        .`      STR      r5,[r1,#0xc]
        0x00000446:    9800        ..      LDR      r0,[sp,#0]
        0x00000448:    b007        ..      ADD      sp,sp,#0x1c
        0x0000044a:    bdf0        ..      POP      {r4-r7,pc}
        0x0000044c:    2004        .       MOVS     r0,#4
        0x0000044e:    e7d9        ..      B        0x404 ; PWM_ConfigOutputChannel + 128
        0x00000450:    2000        .       MOVS     r0,#0
        0x00000452:    e7d7        ..      B        0x404 ; PWM_ConfigOutputChannel + 128
        0x00000454:    2001        .       MOVS     r0,#1
        0x00000456:    e7d5        ..      B        0x404 ; PWM_ConfigOutputChannel + 128
        0x00000458:    2002        .       MOVS     r0,#2
        0x0000045a:    e7d3        ..      B        0x404 ; PWM_ConfigOutputChannel + 128
    PWM_Start
        0x0000045c:    b530        0.      PUSH     {r4,r5,lr}
        0x0000045e:    2200        ."      MOVS     r2,#0
        0x00000460:    4610        .F      MOV      r0,r2
        0x00000462:    2401        .$      MOVS     r4,#1
        0x00000464:    4623        #F      MOV      r3,r4
        0x00000466:    4083        .@      LSLS     r3,r3,r0
        0x00000468:    420b        .B      TST      r3,r1
        0x0000046a:    d003        ..      BEQ      0x474 ; PWM_Start + 24
        0x0000046c:    0085        ..      LSLS     r5,r0,#2
        0x0000046e:    4623        #F      MOV      r3,r4
        0x00000470:    40ab        .@      LSLS     r3,r3,r5
        0x00000472:    431a        .C      ORRS     r2,r2,r3
        0x00000474:    1c40        @.      ADDS     r0,r0,#1
        0x00000476:    2806        .(      CMP      r0,#6
        0x00000478:    d3f4        ..      BCC      0x464 ; PWM_Start + 8
        0x0000047a:    4983        .I      LDR      r1,[pc,#524] ; [0x688] = 0x40040000
        0x0000047c:    6888        .h      LDR      r0,[r1,#8]
        0x0000047e:    4310        .C      ORRS     r0,r0,r2
        0x00000480:    6088        .`      STR      r0,[r1,#8]
        0x00000482:    bd30        0.      POP      {r4,r5,pc}
    PWM_Stop
        0x00000484:    b530        0.      PUSH     {r4,r5,lr}
        0x00000486:    2000        .       MOVS     r0,#0
        0x00000488:    4c7f        .L      LDR      r4,[pc,#508] ; [0x688] = 0x40040000
        0x0000048a:    2501        .%      MOVS     r5,#1
        0x0000048c:    4603        .F      MOV      r3,r0
        0x0000048e:    462a        *F      MOV      r2,r5
        0x00000490:    4082        .@      LSLS     r2,r2,r0
        0x00000492:    420a        .B      TST      r2,r1
        0x00000494:    d002        ..      BEQ      0x49c ; PWM_Stop + 24
        0x00000496:    0082        ..      LSLS     r2,r0,#2
        0x00000498:    1912        ..      ADDS     r2,r2,r4
        0x0000049a:    60d3        .`      STR      r3,[r2,#0xc]
        0x0000049c:    1c40        @.      ADDS     r0,r0,#1
        0x0000049e:    2806        .(      CMP      r0,#6
        0x000004a0:    d3f5        ..      BCC      0x48e ; PWM_Stop + 10
        0x000004a2:    bd30        0.      POP      {r4,r5,pc}
    PWM_ForceStop
        0x000004a4:    b530        0.      PUSH     {r4,r5,lr}
        0x000004a6:    2200        ."      MOVS     r2,#0
        0x000004a8:    4610        .F      MOV      r0,r2
        0x000004aa:    2401        .$      MOVS     r4,#1
        0x000004ac:    4623        #F      MOV      r3,r4
        0x000004ae:    4083        .@      LSLS     r3,r3,r0
        0x000004b0:    420b        .B      TST      r3,r1
        0x000004b2:    d003        ..      BEQ      0x4bc ; PWM_ForceStop + 24
        0x000004b4:    0085        ..      LSLS     r5,r0,#2
        0x000004b6:    4623        #F      MOV      r3,r4
        0x000004b8:    40ab        .@      LSLS     r3,r3,r5
        0x000004ba:    431a        .C      ORRS     r2,r2,r3
        0x000004bc:    1c40        @.      ADDS     r0,r0,#1
        0x000004be:    2806        .(      CMP      r0,#6
        0x000004c0:    d3f4        ..      BCC      0x4ac ; PWM_ForceStop + 8
        0x000004c2:    4971        qI      LDR      r1,[pc,#452] ; [0x688] = 0x40040000
        0x000004c4:    6888        .h      LDR      r0,[r1,#8]
        0x000004c6:    4390        .C      BICS     r0,r0,r2
        0x000004c8:    6088        .`      STR      r0,[r1,#8]
        0x000004ca:    bd30        0.      POP      {r4,r5,pc}
    PWM_EnableADCTrigger
        0x000004cc:    b510        ..      PUSH     {r4,lr}
        0x000004ce:    4c6e        nL      LDR      r4,[pc,#440] ; [0x688] = 0x40040000
        0x000004d0:    230f        .#      MOVS     r3,#0xf
        0x000004d2:    3440        @4      ADDS     r4,r4,#0x40
        0x000004d4:    00c8        ..      LSLS     r0,r1,#3
        0x000004d6:    2904        .)      CMP      r1,#4
        0x000004d8:    d206        ..      BCS      0x4e8 ; PWM_EnableADCTrigger + 28
        0x000004da:    6aa1        .j      LDR      r1,[r4,#0x28]
        0x000004dc:    4083        .@      LSLS     r3,r3,r0
        0x000004de:    4399        .C      BICS     r1,r1,r3
        0x000004e0:    4082        .@      LSLS     r2,r2,r0
        0x000004e2:    4311        .C      ORRS     r1,r1,r2
        0x000004e4:    62a1        .b      STR      r1,[r4,#0x28]
        0x000004e6:    bd10        ..      POP      {r4,pc}
        0x000004e8:    3820         8      SUBS     r0,r0,#0x20
        0x000004ea:    6ae1        .j      LDR      r1,[r4,#0x2c]
        0x000004ec:    4083        .@      LSLS     r3,r3,r0
        0x000004ee:    4399        .C      BICS     r1,r1,r3
        0x000004f0:    4082        .@      LSLS     r2,r2,r0
        0x000004f2:    4311        .C      ORRS     r1,r1,r2
        0x000004f4:    62e1        .b      STR      r1,[r4,#0x2c]
        0x000004f6:    bd10        ..      POP      {r4,pc}
    PWM_DisableADCTrigger
        0x000004f8:    4a63        cJ      LDR      r2,[pc,#396] ; [0x688] = 0x40040000
        0x000004fa:    00c8        ..      LSLS     r0,r1,#3
        0x000004fc:    3240        @2      ADDS     r2,r2,#0x40
        0x000004fe:    230f        .#      MOVS     r3,#0xf
        0x00000500:    2904        .)      CMP      r1,#4
        0x00000502:    d204        ..      BCS      0x50e ; PWM_DisableADCTrigger + 22
        0x00000504:    6a91        .j      LDR      r1,[r2,#0x28]
        0x00000506:    4083        .@      LSLS     r3,r3,r0
        0x00000508:    4399        .C      BICS     r1,r1,r3
        0x0000050a:    6291        .b      STR      r1,[r2,#0x28]
        0x0000050c:    4770        pG      BX       lr
        0x0000050e:    3820         8      SUBS     r0,r0,#0x20
        0x00000510:    4083        .@      LSLS     r3,r3,r0
        0x00000512:    6ad0        .j      LDR      r0,[r2,#0x2c]
        0x00000514:    4398        .C      BICS     r0,r0,r3
        0x00000516:    62d0        .b      STR      r0,[r2,#0x2c]
        0x00000518:    4770        pG      BX       lr
    PWM_ClearADCTriggerFlag
        0x0000051a:    4b5b        [K      LDR      r3,[pc,#364] ; [0x688] = 0x40040000
        0x0000051c:    00c8        ..      LSLS     r0,r1,#3
        0x0000051e:    3340        @3      ADDS     r3,r3,#0x40
        0x00000520:    2904        .)      CMP      r1,#4
        0x00000522:    d204        ..      BCS      0x52e ; PWM_ClearADCTriggerFlag + 20
        0x00000524:    6b19        .k      LDR      r1,[r3,#0x30]
        0x00000526:    4082        .@      LSLS     r2,r2,r0
        0x00000528:    4311        .C      ORRS     r1,r1,r2
        0x0000052a:    6319        .c      STR      r1,[r3,#0x30]
        0x0000052c:    4770        pG      BX       lr
        0x0000052e:    3820         8      SUBS     r0,r0,#0x20
        0x00000530:    4082        .@      LSLS     r2,r2,r0
        0x00000532:    6b58        Xk      LDR      r0,[r3,#0x34]
        0x00000534:    4302        .C      ORRS     r2,r2,r0
        0x00000536:    635a        Zc      STR      r2,[r3,#0x34]
        0x00000538:    4770        pG      BX       lr
    PWM_GetADCTriggerFlag
        0x0000053a:    4853        SH      LDR      r0,[pc,#332] ; [0x688] = 0x40040000
        0x0000053c:    00ca        ..      LSLS     r2,r1,#3
        0x0000053e:    3040        @0      ADDS     r0,r0,#0x40
        0x00000540:    2904        .)      CMP      r1,#4
        0x00000542:    d201        ..      BCS      0x548 ; PWM_GetADCTriggerFlag + 14
        0x00000544:    6b00        .k      LDR      r0,[r0,#0x30]
        0x00000546:    e001        ..      B        0x54c ; PWM_GetADCTriggerFlag + 18
        0x00000548:    6b40        @k      LDR      r0,[r0,#0x34]
        0x0000054a:    3a20         :      SUBS     r2,r2,#0x20
        0x0000054c:    40d0        .@      LSRS     r0,r0,r2
        0x0000054e:    0700        ..      LSLS     r0,r0,#28
        0x00000550:    0f00        ..      LSRS     r0,r0,#28
        0x00000552:    4770        pG      BX       lr
    PWM_EnableFaultBreak
        0x00000554:    0610        ..      LSLS     r0,r2,#24
        0x00000556:    494c        LI      LDR      r1,[pc,#304] ; [0x688] = 0x40040000
        0x00000558:    4318        .C      ORRS     r0,r0,r3
        0x0000055a:    3140        @1      ADDS     r1,r1,#0x40
        0x0000055c:    6208        .b      STR      r0,[r1,#0x20]
        0x0000055e:    4770        pG      BX       lr
    PWM_ClearFaultBreakFlag
        0x00000560:    4949        II      LDR      r1,[pc,#292] ; [0x688] = 0x40040000
        0x00000562:    2080        .       MOVS     r0,#0x80
        0x00000564:    3140        @1      ADDS     r1,r1,#0x40
        0x00000566:    6208        .b      STR      r0,[r1,#0x20]
        0x00000568:    4770        pG      BX       lr
    PWM_EnableOutput
        0x0000056a:    4847        GH      LDR      r0,[pc,#284] ; [0x688] = 0x40040000
        0x0000056c:    3040        @0      ADDS     r0,r0,#0x40
        0x0000056e:    69c2        .i      LDR      r2,[r0,#0x1c]
        0x00000570:    430a        .C      ORRS     r2,r2,r1
        0x00000572:    61c2        .a      STR      r2,[r0,#0x1c]
        0x00000574:    4770        pG      BX       lr
    PWM_DisableOutput
        0x00000576:    4844        DH      LDR      r0,[pc,#272] ; [0x688] = 0x40040000
        0x00000578:    3040        @0      ADDS     r0,r0,#0x40
        0x0000057a:    69c2        .i      LDR      r2,[r0,#0x1c]
        0x0000057c:    438a        .C      BICS     r2,r2,r1
        0x0000057e:    61c2        .a      STR      r2,[r0,#0x1c]
        0x00000580:    4770        pG      BX       lr
    PWM_EnableDeadZone
        0x00000582:    b530        0.      PUSH     {r4,r5,lr}
        0x00000584:    4c40        @L      LDR      r4,[pc,#256] ; [0x688] = 0x40040000
        0x00000586:    0848        H.      LSRS     r0,r1,#1
        0x00000588:    3440        @4      ADDS     r4,r4,#0x40
        0x0000058a:    6a63        cj      LDR      r3,[r4,#0x24]
        0x0000058c:    00c1        ..      LSLS     r1,r0,#3
        0x0000058e:    25ff        .%      MOVS     r5,#0xff
        0x00000590:    408d        .@      LSLS     r5,r5,r1
        0x00000592:    43ab        .C      BICS     r3,r3,r5
        0x00000594:    408a        .@      LSLS     r2,r2,r1
        0x00000596:    4313        .C      ORRS     r3,r3,r2
        0x00000598:    6263        cb      STR      r3,[r4,#0x24]
        0x0000059a:    0323        #.      LSLS     r3,r4,#12
        0x0000059c:    689a        .h      LDR      r2,[r3,#8]
        0x0000059e:    0199        ..      LSLS     r1,r3,#6
        0x000005a0:    4081        .@      LSLS     r1,r1,r0
        0x000005a2:    430a        .C      ORRS     r2,r2,r1
        0x000005a4:    609a        .`      STR      r2,[r3,#8]
        0x000005a6:    bd30        0.      POP      {r4,r5,pc}
    PWM_DisableDeadZone
        0x000005a8:    0848        H.      LSRS     r0,r1,#1
        0x000005aa:    4937        7I      LDR      r1,[pc,#220] ; [0x688] = 0x40040000
        0x000005ac:    688a        .h      LDR      r2,[r1,#8]
        0x000005ae:    018b        ..      LSLS     r3,r1,#6
        0x000005b0:    4083        .@      LSLS     r3,r3,r0
        0x000005b2:    439a        .C      BICS     r2,r2,r3
        0x000005b4:    608a        .`      STR      r2,[r1,#8]
        0x000005b6:    4770        pG      BX       lr
    PWM_EnableDutyInt
        0x000005b8:    4833        3H      LDR      r0,[pc,#204] ; [0x688] = 0x40040000
        0x000005ba:    3040        @0      ADDS     r0,r0,#0x40
        0x000005bc:    6942        Bi      LDR      r2,[r0,#0x14]
        0x000005be:    1583        ..      ASRS     r3,r0,#22
        0x000005c0:    408b        .@      LSLS     r3,r3,r1
        0x000005c2:    431a        .C      ORRS     r2,r2,r3
        0x000005c4:    6142        Ba      STR      r2,[r0,#0x14]
        0x000005c6:    4770        pG      BX       lr
    PWM_DisableDutyInt
        0x000005c8:    482f        /H      LDR      r0,[pc,#188] ; [0x688] = 0x40040000
        0x000005ca:    3040        @0      ADDS     r0,r0,#0x40
        0x000005cc:    6942        Bi      LDR      r2,[r0,#0x14]
        0x000005ce:    1583        ..      ASRS     r3,r0,#22
        0x000005d0:    408b        .@      LSLS     r3,r3,r1
        0x000005d2:    439a        .C      BICS     r2,r2,r3
        0x000005d4:    6142        Ba      STR      r2,[r0,#0x14]
        0x000005d6:    4770        pG      BX       lr
    PWM_ClearDutyIntFlag
        0x000005d8:    482b        +H      LDR      r0,[pc,#172] ; [0x688] = 0x40040000
        0x000005da:    3040        @0      ADDS     r0,r0,#0x40
        0x000005dc:    6982        .i      LDR      r2,[r0,#0x18]
        0x000005de:    1583        ..      ASRS     r3,r0,#22
        0x000005e0:    408b        .@      LSLS     r3,r3,r1
        0x000005e2:    439a        .C      BICS     r2,r2,r3
        0x000005e4:    6182        .a      STR      r2,[r0,#0x18]
        0x000005e6:    4770        pG      BX       lr
    PWM_GetDutyIntFlag
        0x000005e8:    4827        'H      LDR      r0,[pc,#156] ; [0x688] = 0x40040000
        0x000005ea:    3040        @0      ADDS     r0,r0,#0x40
        0x000005ec:    6980        .i      LDR      r0,[r0,#0x18]
        0x000005ee:    22ff        ."      MOVS     r2,#0xff
        0x000005f0:    3201        .2      ADDS     r2,#1
        0x000005f2:    408a        .@      LSLS     r2,r2,r1
        0x000005f4:    4010        .@      ANDS     r0,r0,r2
        0x000005f6:    d000        ..      BEQ      0x5fa ; PWM_GetDutyIntFlag + 18
        0x000005f8:    2001        .       MOVS     r0,#1
        0x000005fa:    4770        pG      BX       lr
    PWM_EnableFaultBreakInt
        0x000005fc:    4822        "H      LDR      r0,[pc,#136] ; [0x688] = 0x40040000
        0x000005fe:    3040        @0      ADDS     r0,r0,#0x40
        0x00000600:    6941        Ai      LDR      r1,[r0,#0x14]
        0x00000602:    2201        ."      MOVS     r2,#1
        0x00000604:    0412        ..      LSLS     r2,r2,#16
        0x00000606:    4311        .C      ORRS     r1,r1,r2
        0x00000608:    6141        Aa      STR      r1,[r0,#0x14]
        0x0000060a:    4770        pG      BX       lr
    PWM_DisableFaultBreakInt
        0x0000060c:    481e        .H      LDR      r0,[pc,#120] ; [0x688] = 0x40040000
        0x0000060e:    3040        @0      ADDS     r0,r0,#0x40
        0x00000610:    6941        Ai      LDR      r1,[r0,#0x14]
        0x00000612:    2201        ."      MOVS     r2,#1
        0x00000614:    0412        ..      LSLS     r2,r2,#16
        0x00000616:    4391        .C      BICS     r1,r1,r2
        0x00000618:    6141        Aa      STR      r1,[r0,#0x14]
        0x0000061a:    4770        pG      BX       lr
    PWM_ClearFaultBreakIntFlag
        0x0000061c:    481a        .H      LDR      r0,[pc,#104] ; [0x688] = 0x40040000
        0x0000061e:    3040        @0      ADDS     r0,r0,#0x40
        0x00000620:    6181        .a      STR      r1,[r0,#0x18]
        0x00000622:    4770        pG      BX       lr
    PWM_GetFaultBreakIntFlag
        0x00000624:    4818        .H      LDR      r0,[pc,#96] ; [0x688] = 0x40040000
        0x00000626:    3040        @0      ADDS     r0,r0,#0x40
        0x00000628:    6980        .i      LDR      r0,[r0,#0x18]
        0x0000062a:    4008        .@      ANDS     r0,r0,r1
        0x0000062c:    d000        ..      BEQ      0x630 ; PWM_GetFaultBreakIntFlag + 12
        0x0000062e:    2001        .       MOVS     r0,#1
        0x00000630:    4770        pG      BX       lr
    PWM_EnablePeriodInt
        0x00000632:    b510        ..      PUSH     {r4,lr}
        0x00000634:    4c14        .L      LDR      r4,[pc,#80] ; [0x688] = 0x40040000
        0x00000636:    3440        @4      ADDS     r4,r4,#0x40
        0x00000638:    6960        `i      LDR      r0,[r4,#0x14]
        0x0000063a:    2301        .#      MOVS     r3,#1
        0x0000063c:    045b        [.      LSLS     r3,r3,#17
        0x0000063e:    4398        .C      BICS     r0,r0,r3
        0x00000640:    2301        .#      MOVS     r3,#1
        0x00000642:    408b        .@      LSLS     r3,r3,r1
        0x00000644:    4318        .C      ORRS     r0,r0,r3
        0x00000646:    4310        .C      ORRS     r0,r0,r2
        0x00000648:    6160        `a      STR      r0,[r4,#0x14]
        0x0000064a:    bd10        ..      POP      {r4,pc}
    PWM_DisablePeriodInt
        0x0000064c:    480e        .H      LDR      r0,[pc,#56] ; [0x688] = 0x40040000
        0x0000064e:    3040        @0      ADDS     r0,r0,#0x40
        0x00000650:    6942        Bi      LDR      r2,[r0,#0x14]
        0x00000652:    2301        .#      MOVS     r3,#1
        0x00000654:    408b        .@      LSLS     r3,r3,r1
        0x00000656:    439a        .C      BICS     r2,r2,r3
        0x00000658:    6142        Ba      STR      r2,[r0,#0x14]
        0x0000065a:    4770        pG      BX       lr
    PWM_ClearPeriodIntFlag
        0x0000065c:    480a        .H      LDR      r0,[pc,#40] ; [0x688] = 0x40040000
        0x0000065e:    3040        @0      ADDS     r0,r0,#0x40
        0x00000660:    6982        .i      LDR      r2,[r0,#0x18]
        0x00000662:    2301        .#      MOVS     r3,#1
        0x00000664:    408b        .@      LSLS     r3,r3,r1
        0x00000666:    431a        .C      ORRS     r2,r2,r3
        0x00000668:    6182        .a      STR      r2,[r0,#0x18]
        0x0000066a:    4770        pG      BX       lr
    PWM_GetPeriodIntFlag
        0x0000066c:    4806        .H      LDR      r0,[pc,#24] ; [0x688] = 0x40040000
        0x0000066e:    3040        @0      ADDS     r0,r0,#0x40
        0x00000670:    6980        .i      LDR      r0,[r0,#0x18]
        0x00000672:    2201        ."      MOVS     r2,#1
        0x00000674:    408a        .@      LSLS     r2,r2,r1
        0x00000676:    4010        .@      ANDS     r0,r0,r2
        0x00000678:    d000        ..      BEQ      0x67c ; PWM_GetPeriodIntFlag + 16
        0x0000067a:    2001        .       MOVS     r0,#1
        0x0000067c:    4770        pG      BX       lr
    $d
        0x0000067e:    0000        ..      DCW    0
        0x00000680:    20000284    ...     DCD    536871556
        0x00000684:    0000ffff    ....    DCD    65535
        0x00000688:    40040000    ...@    DCD    1074003968
    $t
    .text
    SPI_Open
        0x0000068c:    b5f8        ..      PUSH     {r3-r7,lr}
        0x0000068e:    4604        .F      MOV      r4,r0
        0x00000690:    487b        {H      LDR      r0,[pc,#492] ; [0x880] = 0x50000200
        0x00000692:    9f06        ..      LDR      r7,[sp,#0x18]
        0x00000694:    6885        .h      LDR      r5,[r0,#8]
        0x00000696:    2601        .&      MOVS     r6,#1
        0x00000698:    0336        6.      LSLS     r6,r6,#12
        0x0000069a:    4335        5C      ORRS     r5,r5,r6
        0x0000069c:    6085        .`      STR      r5,[r0,#8]
        0x0000069e:    2b20         +      CMP      r3,#0x20
        0x000006a0:    d100        ..      BNE      0x6a4 ; SPI_Open + 24
        0x000006a2:    2300        .#      MOVS     r3,#0
        0x000006a4:    00d8        ..      LSLS     r0,r3,#3
        0x000006a6:    4308        .C      ORRS     r0,r0,r1
        0x000006a8:    4310        .C      ORRS     r0,r0,r2
        0x000006aa:    6020         `      STR      r0,[r4,#0]
        0x000006ac:    f7fffdac    ....    BL       CLK_GetHCLKFreq ; 0x208
        0x000006b0:    4d74        tM      LDR      r5,[pc,#464] ; [0x884] = 0xffff
        0x000006b2:    4606        .F      MOV      r6,r0
        0x000006b4:    4628        (F      MOV      r0,r5
        0x000006b6:    2f00        ./      CMP      r7,#0
        0x000006b8:    d015        ..      BEQ      0x6e6 ; SPI_Open + 90
        0x000006ba:    4639        9F      MOV      r1,r7
        0x000006bc:    4630        0F      MOV      r0,r6
        0x000006be:    f001f863    ..c.    BL       __aeabi_uidiv ; 0x1788
        0x000006c2:    1c40        @.      ADDS     r0,r0,#1
        0x000006c4:    0840        @.      LSRS     r0,r0,#1
        0x000006c6:    1e40        @.      SUBS     r0,r0,#1
        0x000006c8:    42a8        .B      CMP      r0,r5
        0x000006ca:    d900        ..      BLS      0x6ce ; SPI_Open + 66
        0x000006cc:    4628        (F      MOV      r0,r5
        0x000006ce:    496e        nI      LDR      r1,[pc,#440] ; [0x888] = 0x40030000
        0x000006d0:    6849        Ih      LDR      r1,[r1,#4]
        0x000006d2:    0c09        ..      LSRS     r1,r1,#16
        0x000006d4:    0409        ..      LSLS     r1,r1,#16
        0x000006d6:    4301        .C      ORRS     r1,r1,r0
        0x000006d8:    6061        a`      STR      r1,[r4,#4]
        0x000006da:    0041        A.      LSLS     r1,r0,#1
        0x000006dc:    4630        0F      MOV      r0,r6
        0x000006de:    1c89        ..      ADDS     r1,r1,#2
        0x000006e0:    f001f852    ..R.    BL       __aeabi_uidiv ; 0x1788
        0x000006e4:    bdf8        ..      POP      {r3-r7,pc}
        0x000006e6:    2100        .!      MOVS     r1,#0
        0x000006e8:    e7f6        ..      B        0x6d8 ; SPI_Open + 76
    SPI_Close
        0x000006ea:    2005        .       MOVS     r0,#5
        0x000006ec:    0700        ..      LSLS     r0,r0,#28
        0x000006ee:    68c2        .h      LDR      r2,[r0,#0xc]
        0x000006f0:    2101        .!      MOVS     r1,#1
        0x000006f2:    0309        ..      LSLS     r1,r1,#12
        0x000006f4:    430a        .C      ORRS     r2,r2,r1
        0x000006f6:    60c2        .`      STR      r2,[r0,#0xc]
        0x000006f8:    68c2        .h      LDR      r2,[r0,#0xc]
        0x000006fa:    438a        .C      BICS     r2,r2,r1
        0x000006fc:    60c2        .`      STR      r2,[r0,#0xc]
        0x000006fe:    4860        `H      LDR      r0,[pc,#384] ; [0x880] = 0x50000200
        0x00000700:    6882        .h      LDR      r2,[r0,#8]
        0x00000702:    438a        .C      BICS     r2,r2,r1
        0x00000704:    6082        .`      STR      r2,[r0,#8]
        0x00000706:    4770        pG      BX       lr
    SPI_ClearRxFIFO
        0x00000708:    6c01        .l      LDR      r1,[r0,#0x40]
        0x0000070a:    2201        ."      MOVS     r2,#1
        0x0000070c:    4311        .C      ORRS     r1,r1,r2
        0x0000070e:    6401        .d      STR      r1,[r0,#0x40]
        0x00000710:    4770        pG      BX       lr
    SPI_ClearTxFIFO
        0x00000712:    6c01        .l      LDR      r1,[r0,#0x40]
        0x00000714:    2202        ."      MOVS     r2,#2
        0x00000716:    4311        .C      ORRS     r1,r1,r2
        0x00000718:    6401        .d      STR      r1,[r0,#0x40]
        0x0000071a:    4770        pG      BX       lr
    SPI_DisableAutoSS
        0x0000071c:    6881        .h      LDR      r1,[r0,#8]
        0x0000071e:    2208        ."      MOVS     r2,#8
        0x00000720:    4391        .C      BICS     r1,r1,r2
        0x00000722:    6081        .`      STR      r1,[r0,#8]
        0x00000724:    4770        pG      BX       lr
    SPI_EnableAutoSS
        0x00000726:    6883        .h      LDR      r3,[r0,#8]
        0x00000728:    430b        .C      ORRS     r3,r3,r1
        0x0000072a:    2108        .!      MOVS     r1,#8
        0x0000072c:    430a        .C      ORRS     r2,r2,r1
        0x0000072e:    4313        .C      ORRS     r3,r3,r2
        0x00000730:    6083        .`      STR      r3,[r0,#8]
        0x00000732:    4770        pG      BX       lr
    SPI_SetBusClock
        0x00000734:    b5f8        ..      PUSH     {r3-r7,lr}
        0x00000736:    460f        .F      MOV      r7,r1
        0x00000738:    4604        .F      MOV      r4,r0
        0x0000073a:    f7fffd65    ..e.    BL       CLK_GetHCLKFreq ; 0x208
        0x0000073e:    4d51        QM      LDR      r5,[pc,#324] ; [0x884] = 0xffff
        0x00000740:    4606        .F      MOV      r6,r0
        0x00000742:    4628        (F      MOV      r0,r5
        0x00000744:    2f00        ./      CMP      r7,#0
        0x00000746:    d015        ..      BEQ      0x774 ; SPI_SetBusClock + 64
        0x00000748:    4639        9F      MOV      r1,r7
        0x0000074a:    4630        0F      MOV      r0,r6
        0x0000074c:    f001f81c    ....    BL       __aeabi_uidiv ; 0x1788
        0x00000750:    1c40        @.      ADDS     r0,r0,#1
        0x00000752:    0840        @.      LSRS     r0,r0,#1
        0x00000754:    1e40        @.      SUBS     r0,r0,#1
        0x00000756:    42a8        .B      CMP      r0,r5
        0x00000758:    d900        ..      BLS      0x75c ; SPI_SetBusClock + 40
        0x0000075a:    4628        (F      MOV      r0,r5
        0x0000075c:    494a        JI      LDR      r1,[pc,#296] ; [0x888] = 0x40030000
        0x0000075e:    6849        Ih      LDR      r1,[r1,#4]
        0x00000760:    0c09        ..      LSRS     r1,r1,#16
        0x00000762:    0409        ..      LSLS     r1,r1,#16
        0x00000764:    4301        .C      ORRS     r1,r1,r0
        0x00000766:    6061        a`      STR      r1,[r4,#4]
        0x00000768:    0041        A.      LSLS     r1,r0,#1
        0x0000076a:    4630        0F      MOV      r0,r6
        0x0000076c:    1c89        ..      ADDS     r1,r1,#2
        0x0000076e:    f001f80b    ....    BL       __aeabi_uidiv ; 0x1788
        0x00000772:    bdf8        ..      POP      {r3-r7,pc}
        0x00000774:    2100        .!      MOVS     r1,#0
        0x00000776:    e7f6        ..      B        0x766 ; SPI_SetBusClock + 50
    SPI_EnableFIFO
        0x00000778:    b510        ..      PUSH     {r4,lr}
        0x0000077a:    6c03        .l      LDR      r3,[r0,#0x40]
        0x0000077c:    2433        3$      MOVS     r4,#0x33
        0x0000077e:    0624        $.      LSLS     r4,r4,#24
        0x00000780:    43a3        .C      BICS     r3,r3,r4
        0x00000782:    0709        ..      LSLS     r1,r1,#28
        0x00000784:    430b        .C      ORRS     r3,r3,r1
        0x00000786:    0611        ..      LSLS     r1,r2,#24
        0x00000788:    430b        .C      ORRS     r3,r3,r1
        0x0000078a:    6403        .d      STR      r3,[r0,#0x40]
        0x0000078c:    6801        .h      LDR      r1,[r0,#0]
        0x0000078e:    2201        ."      MOVS     r2,#1
        0x00000790:    0552        R.      LSLS     r2,r2,#21
        0x00000792:    4311        .C      ORRS     r1,r1,r2
        0x00000794:    6001        .`      STR      r1,[r0,#0]
        0x00000796:    bd10        ..      POP      {r4,pc}
    SPI_DisableFIFO
        0x00000798:    6801        .h      LDR      r1,[r0,#0]
        0x0000079a:    2201        ."      MOVS     r2,#1
        0x0000079c:    0552        R.      LSLS     r2,r2,#21
        0x0000079e:    4391        .C      BICS     r1,r1,r2
        0x000007a0:    6001        .`      STR      r1,[r0,#0]
        0x000007a2:    4770        pG      BX       lr
    SPI_GetBusClock
        0x000007a4:    b510        ..      PUSH     {r4,lr}
        0x000007a6:    4604        .F      MOV      r4,r0
        0x000007a8:    f7fffd2e    ....    BL       CLK_GetHCLKFreq ; 0x208
        0x000007ac:    6861        ah      LDR      r1,[r4,#4]
        0x000007ae:    0840        @.      LSRS     r0,r0,#1
        0x000007b0:    b2c9        ..      UXTB     r1,r1
        0x000007b2:    1c49        I.      ADDS     r1,r1,#1
        0x000007b4:    f000ffe8    ....    BL       __aeabi_uidiv ; 0x1788
        0x000007b8:    bd10        ..      POP      {r4,pc}
    SPI_EnableInt
        0x000007ba:    07ca        ..      LSLS     r2,r1,#31
        0x000007bc:    d004        ..      BEQ      0x7c8 ; SPI_EnableInt + 14
        0x000007be:    6802        .h      LDR      r2,[r0,#0]
        0x000007c0:    2301        .#      MOVS     r3,#1
        0x000007c2:    045b        [.      LSLS     r3,r3,#17
        0x000007c4:    431a        .C      ORRS     r2,r2,r3
        0x000007c6:    6002        .`      STR      r2,[r0,#0]
        0x000007c8:    078a        ..      LSLS     r2,r1,#30
        0x000007ca:    d504        ..      BPL      0x7d6 ; SPI_EnableInt + 28
        0x000007cc:    6bc2        .k      LDR      r2,[r0,#0x3c]
        0x000007ce:    2301        .#      MOVS     r3,#1
        0x000007d0:    041b        ..      LSLS     r3,r3,#16
        0x000007d2:    431a        .C      ORRS     r2,r2,r3
        0x000007d4:    63c2        .c      STR      r2,[r0,#0x3c]
        0x000007d6:    074a        J.      LSLS     r2,r1,#29
        0x000007d8:    d504        ..      BPL      0x7e4 ; SPI_EnableInt + 42
        0x000007da:    6bc2        .k      LDR      r2,[r0,#0x3c]
        0x000007dc:    2301        .#      MOVS     r3,#1
        0x000007de:    029b        ..      LSLS     r3,r3,#10
        0x000007e0:    431a        .C      ORRS     r2,r2,r3
        0x000007e2:    63c2        .c      STR      r2,[r0,#0x3c]
        0x000007e4:    070a        ..      LSLS     r2,r1,#28
        0x000007e6:    d503        ..      BPL      0x7f0 ; SPI_EnableInt + 54
        0x000007e8:    6c02        .l      LDR      r2,[r0,#0x40]
        0x000007ea:    2308        .#      MOVS     r3,#8
        0x000007ec:    431a        .C      ORRS     r2,r2,r3
        0x000007ee:    6402        .d      STR      r2,[r0,#0x40]
        0x000007f0:    06ca        ..      LSLS     r2,r1,#27
        0x000007f2:    d503        ..      BPL      0x7fc ; SPI_EnableInt + 66
        0x000007f4:    6c02        .l      LDR      r2,[r0,#0x40]
        0x000007f6:    2304        .#      MOVS     r3,#4
        0x000007f8:    431a        .C      ORRS     r2,r2,r3
        0x000007fa:    6402        .d      STR      r2,[r0,#0x40]
        0x000007fc:    2212        ."      MOVS     r2,#0x12
        0x000007fe:    438a        .C      BICS     r2,r2,r1
        0x00000800:    d103        ..      BNE      0x80a ; SPI_EnableInt + 80
        0x00000802:    6c02        .l      LDR      r2,[r0,#0x40]
        0x00000804:    2340        @#      MOVS     r3,#0x40
        0x00000806:    431a        .C      ORRS     r2,r2,r3
        0x00000808:    6402        .d      STR      r2,[r0,#0x40]
        0x0000080a:    2214        ."      MOVS     r2,#0x14
        0x0000080c:    438a        .C      BICS     r2,r2,r1
        0x0000080e:    d104        ..      BNE      0x81a ; SPI_EnableInt + 96
        0x00000810:    6c01        .l      LDR      r1,[r0,#0x40]
        0x00000812:    2201        ."      MOVS     r2,#1
        0x00000814:    0552        R.      LSLS     r2,r2,#21
        0x00000816:    4311        .C      ORRS     r1,r1,r2
        0x00000818:    6401        .d      STR      r1,[r0,#0x40]
        0x0000081a:    4770        pG      BX       lr
    SPI_DisableInt
        0x0000081c:    07ca        ..      LSLS     r2,r1,#31
        0x0000081e:    d004        ..      BEQ      0x82a ; SPI_DisableInt + 14
        0x00000820:    6802        .h      LDR      r2,[r0,#0]
        0x00000822:    2301        .#      MOVS     r3,#1
        0x00000824:    045b        [.      LSLS     r3,r3,#17
        0x00000826:    439a        .C      BICS     r2,r2,r3
        0x00000828:    6002        .`      STR      r2,[r0,#0]
        0x0000082a:    078a        ..      LSLS     r2,r1,#30
        0x0000082c:    d504        ..      BPL      0x838 ; SPI_DisableInt + 28
        0x0000082e:    6bc2        .k      LDR      r2,[r0,#0x3c]
        0x00000830:    2301        .#      MOVS     r3,#1
        0x00000832:    041b        ..      LSLS     r3,r3,#16
        0x00000834:    439a        .C      BICS     r2,r2,r3
        0x00000836:    63c2        .c      STR      r2,[r0,#0x3c]
        0x00000838:    074a        J.      LSLS     r2,r1,#29
        0x0000083a:    d504        ..      BPL      0x846 ; SPI_DisableInt + 42
        0x0000083c:    6bc2        .k      LDR      r2,[r0,#0x3c]
        0x0000083e:    2301        .#      MOVS     r3,#1
        0x00000840:    029b        ..      LSLS     r3,r3,#10
        0x00000842:    439a        .C      BICS     r2,r2,r3
        0x00000844:    63c2        .c      STR      r2,[r0,#0x3c]
        0x00000846:    070a        ..      LSLS     r2,r1,#28
        0x00000848:    d503        ..      BPL      0x852 ; SPI_DisableInt + 54
        0x0000084a:    6c02        .l      LDR      r2,[r0,#0x40]
        0x0000084c:    2308        .#      MOVS     r3,#8
        0x0000084e:    439a        .C      BICS     r2,r2,r3
        0x00000850:    6402        .d      STR      r2,[r0,#0x40]
        0x00000852:    06ca        ..      LSLS     r2,r1,#27
        0x00000854:    d503        ..      BPL      0x85e ; SPI_DisableInt + 66
        0x00000856:    6c02        .l      LDR      r2,[r0,#0x40]
        0x00000858:    2304        .#      MOVS     r3,#4
        0x0000085a:    439a        .C      BICS     r2,r2,r3
        0x0000085c:    6402        .d      STR      r2,[r0,#0x40]
        0x0000085e:    2212        ."      MOVS     r2,#0x12
        0x00000860:    438a        .C      BICS     r2,r2,r1
        0x00000862:    d103        ..      BNE      0x86c ; SPI_DisableInt + 80
        0x00000864:    6c02        .l      LDR      r2,[r0,#0x40]
        0x00000866:    2340        @#      MOVS     r3,#0x40
        0x00000868:    439a        .C      BICS     r2,r2,r3
        0x0000086a:    6402        .d      STR      r2,[r0,#0x40]
        0x0000086c:    2214        ."      MOVS     r2,#0x14
        0x0000086e:    438a        .C      BICS     r2,r2,r1
        0x00000870:    d104        ..      BNE      0x87c ; SPI_DisableInt + 96
        0x00000872:    6c01        .l      LDR      r1,[r0,#0x40]
        0x00000874:    2201        ."      MOVS     r2,#1
        0x00000876:    0552        R.      LSLS     r2,r2,#21
        0x00000878:    4391        .C      BICS     r1,r1,r2
        0x0000087a:    6401        .d      STR      r1,[r0,#0x40]
        0x0000087c:    4770        pG      BX       lr
    $d
        0x0000087e:    0000        ..      DCW    0
        0x00000880:    50000200    ...P    DCD    1342177792
        0x00000884:    0000ffff    ....    DCD    65535
        0x00000888:    40030000    ...@    DCD    1073938432
    $t
    .text
    SYS_ClearResetSrc
        0x0000088c:    2105        .!      MOVS     r1,#5
        0x0000088e:    0709        ..      LSLS     r1,r1,#28
        0x00000890:    684a        Jh      LDR      r2,[r1,#4]
        0x00000892:    4302        .C      ORRS     r2,r2,r0
        0x00000894:    604a        J`      STR      r2,[r1,#4]
        0x00000896:    4770        pG      BX       lr
    SYS_GetBODStatus
        0x00000898:    2005        .       MOVS     r0,#5
        0x0000089a:    0700        ..      LSLS     r0,r0,#28
        0x0000089c:    6980        .i      LDR      r0,[r0,#0x18]
        0x0000089e:    0640        @.      LSLS     r0,r0,#25
        0x000008a0:    0fc0        ..      LSRS     r0,r0,#31
        0x000008a2:    4770        pG      BX       lr
    SYS_GetResetSrc
        0x000008a4:    2005        .       MOVS     r0,#5
        0x000008a6:    0700        ..      LSLS     r0,r0,#28
        0x000008a8:    6840        @h      LDR      r0,[r0,#4]
        0x000008aa:    4770        pG      BX       lr
    SYS_IsRegLocked
        0x000008ac:    4829        )H      LDR      r0,[pc,#164] ; [0x954] = 0x50000100
        0x000008ae:    6800        .h      LDR      r0,[r0,#0]
        0x000008b0:    07c0        ..      LSLS     r0,r0,#31
        0x000008b2:    0fc0        ..      LSRS     r0,r0,#31
        0x000008b4:    4770        pG      BX       lr
    SYS_LockReg
        0x000008b6:    4927        'I      LDR      r1,[pc,#156] ; [0x954] = 0x50000100
        0x000008b8:    2000        .       MOVS     r0,#0
        0x000008ba:    6008        .`      STR      r0,[r1,#0]
        0x000008bc:    4770        pG      BX       lr
    SYS_UnlockReg
        0x000008be:    b510        ..      PUSH     {r4,lr}
        0x000008c0:    2159        Y!      MOVS     r1,#0x59
        0x000008c2:    2316        .#      MOVS     r3,#0x16
        0x000008c4:    4823        #H      LDR      r0,[pc,#140] ; [0x954] = 0x50000100
        0x000008c6:    2288        ."      MOVS     r2,#0x88
        0x000008c8:    e002        ..      B        0x8d0 ; SYS_UnlockReg + 18
        0x000008ca:    6001        .`      STR      r1,[r0,#0]
        0x000008cc:    6003        .`      STR      r3,[r0,#0]
        0x000008ce:    6002        .`      STR      r2,[r0,#0]
        0x000008d0:    6804        .h      LDR      r4,[r0,#0]
        0x000008d2:    2c01        .,      CMP      r4,#1
        0x000008d4:    d1f9        ..      BNE      0x8ca ; SYS_UnlockReg + 12
        0x000008d6:    bd10        ..      POP      {r4,pc}
    SYS_ReadPDID
        0x000008d8:    2005        .       MOVS     r0,#5
        0x000008da:    0700        ..      LSLS     r0,r0,#28
        0x000008dc:    6800        .h      LDR      r0,[r0,#0]
        0x000008de:    4770        pG      BX       lr
    SYS_ResetChip
        0x000008e0:    2005        .       MOVS     r0,#5
        0x000008e2:    0700        ..      LSLS     r0,r0,#28
        0x000008e4:    6881        .h      LDR      r1,[r0,#8]
        0x000008e6:    2201        ."      MOVS     r2,#1
        0x000008e8:    4311        .C      ORRS     r1,r1,r2
        0x000008ea:    6081        .`      STR      r1,[r0,#8]
        0x000008ec:    4770        pG      BX       lr
    SYS_ResetCPU
        0x000008ee:    2005        .       MOVS     r0,#5
        0x000008f0:    0700        ..      LSLS     r0,r0,#28
        0x000008f2:    6881        .h      LDR      r1,[r0,#8]
        0x000008f4:    2202        ."      MOVS     r2,#2
        0x000008f6:    4311        .C      ORRS     r1,r1,r2
        0x000008f8:    6081        .`      STR      r1,[r0,#8]
        0x000008fa:    4770        pG      BX       lr
    SYS_ResetModule
        0x000008fc:    0e01        ..      LSRS     r1,r0,#24
        0x000008fe:    008a        ..      LSLS     r2,r1,#2
        0x00000900:    2105        .!      MOVS     r1,#5
        0x00000902:    0709        ..      LSLS     r1,r1,#28
        0x00000904:    1851        Q.      ADDS     r1,r2,r1
        0x00000906:    688b        .h      LDR      r3,[r1,#8]
        0x00000908:    2201        ."      MOVS     r2,#1
        0x0000090a:    4082        .@      LSLS     r2,r2,r0
        0x0000090c:    4313        .C      ORRS     r3,r3,r2
        0x0000090e:    608b        .`      STR      r3,[r1,#8]
        0x00000910:    6888        .h      LDR      r0,[r1,#8]
        0x00000912:    4390        .C      BICS     r0,r0,r2
        0x00000914:    6088        .`      STR      r0,[r1,#8]
        0x00000916:    4770        pG      BX       lr
    SYS_EnableBOD
        0x00000918:    b510        ..      PUSH     {r4,lr}
        0x0000091a:    2205        ."      MOVS     r2,#5
        0x0000091c:    0712        ..      LSLS     r2,r2,#28
        0x0000091e:    6993        .i      LDR      r3,[r2,#0x18]
        0x00000920:    2401        .$      MOVS     r4,#1
        0x00000922:    4323        #C      ORRS     r3,r3,r4
        0x00000924:    6193        .a      STR      r3,[r2,#0x18]
        0x00000926:    6993        .i      LDR      r3,[r2,#0x18]
        0x00000928:    2408        .$      MOVS     r4,#8
        0x0000092a:    43a3        .C      BICS     r3,r3,r4
        0x0000092c:    4303        .C      ORRS     r3,r3,r0
        0x0000092e:    6193        .a      STR      r3,[r2,#0x18]
        0x00000930:    6990        .i      LDR      r0,[r2,#0x18]
        0x00000932:    2306        .#      MOVS     r3,#6
        0x00000934:    4398        .C      BICS     r0,r0,r3
        0x00000936:    4308        .C      ORRS     r0,r0,r1
        0x00000938:    6190        .a      STR      r0,[r2,#0x18]
        0x0000093a:    bd10        ..      POP      {r4,pc}
    SYS_DisableBOD
        0x0000093c:    2005        .       MOVS     r0,#5
        0x0000093e:    0700        ..      LSLS     r0,r0,#28
        0x00000940:    6981        .i      LDR      r1,[r0,#0x18]
        0x00000942:    0849        I.      LSRS     r1,r1,#1
        0x00000944:    0049        I.      LSLS     r1,r1,#1
        0x00000946:    6181        .a      STR      r1,[r0,#0x18]
        0x00000948:    6981        .i      LDR      r1,[r0,#0x18]
        0x0000094a:    2206        ."      MOVS     r2,#6
        0x0000094c:    4311        .C      ORRS     r1,r1,r2
        0x0000094e:    6181        .a      STR      r1,[r0,#0x18]
        0x00000950:    4770        pG      BX       lr
    $d
        0x00000952:    0000        ..      DCW    0
        0x00000954:    50000100    ...P    DCD    1342177536
    $t
    .text
    NVIC_SetPriority
        0x00000958:    0783        ..      LSLS     r3,r0,#30
        0x0000095a:    22ff        ."      MOVS     r2,#0xff
        0x0000095c:    0edb        ..      LSRS     r3,r3,#27
        0x0000095e:    409a        .@      LSLS     r2,r2,r3
        0x00000960:    0789        ..      LSLS     r1,r1,#30
        0x00000962:    0e09        ..      LSRS     r1,r1,#24
        0x00000964:    4099        .@      LSLS     r1,r1,r3
        0x00000966:    2800        .(      CMP      r0,#0
        0x00000968:    da0b        ..      BGE      0x982 ; NVIC_SetPriority + 42
        0x0000096a:    0700        ..      LSLS     r0,r0,#28
        0x0000096c:    0f00        ..      LSRS     r0,r0,#28
        0x0000096e:    3808        .8      SUBS     r0,r0,#8
        0x00000970:    0883        ..      LSRS     r3,r0,#2
        0x00000972:    48ff        .H      LDR      r0,[pc,#1020] ; [0xd70] = 0xe000ed00
        0x00000974:    009b        ..      LSLS     r3,r3,#2
        0x00000976:    1818        ..      ADDS     r0,r3,r0
        0x00000978:    69c3        .i      LDR      r3,[r0,#0x1c]
        0x0000097a:    4393        .C      BICS     r3,r3,r2
        0x0000097c:    430b        .C      ORRS     r3,r3,r1
        0x0000097e:    61c3        .a      STR      r3,[r0,#0x1c]
        0x00000980:    4770        pG      BX       lr
        0x00000982:    0883        ..      LSRS     r3,r0,#2
        0x00000984:    48fb        .H      LDR      r0,[pc,#1004] ; [0xd74] = 0xe000e400
        0x00000986:    009b        ..      LSLS     r3,r3,#2
        0x00000988:    1818        ..      ADDS     r0,r3,r0
        0x0000098a:    6803        .h      LDR      r3,[r0,#0]
        0x0000098c:    4393        .C      BICS     r3,r3,r2
        0x0000098e:    430b        .C      ORRS     r3,r3,r1
        0x00000990:    6003        .`      STR      r3,[r0,#0]
        0x00000992:    4770        pG      BX       lr
    initClk
        0x00000994:    b5f8        ..      PUSH     {r3-r7,lr}
        0x00000996:    4cf8        .L      LDR      r4,[pc,#992] ; [0xd78] = 0x50000200
        0x00000998:    6820         h      LDR      r0,[r4,#0]
        0x0000099a:    2104        .!      MOVS     r1,#4
        0x0000099c:    4308        .C      ORRS     r0,r0,r1
        0x0000099e:    6020         `      STR      r0,[r4,#0]
        0x000009a0:    2010        .       MOVS     r0,#0x10
        0x000009a2:    f7fffca5    ....    BL       CLK_WaitClockReady ; 0x2f0
        0x000009a6:    2100        .!      MOVS     r1,#0
        0x000009a8:    2007        .       MOVS     r0,#7
        0x000009aa:    f7fffc39    ..9.    BL       CLK_SetHCLK ; 0x220
        0x000009ae:    2038        8       MOVS     r0,#0x38
        0x000009b0:    f7fffc68    ..h.    BL       CLK_SetSysTickClockSrc ; 0x284
        0x000009b4:    4df1        .M      LDR      r5,[pc,#964] ; [0xd7c] = 0x260c03e0
        0x000009b6:    2201        ."      MOVS     r2,#1
        0x000009b8:    2102        .!      MOVS     r1,#2
        0x000009ba:    4628        (F      MOV      r0,r5
        0x000009bc:    f7fffc3c    ..<.    BL       CLK_SetModuleClock ; 0x238
        0x000009c0:    4eef        .N      LDR      r6,[pc,#956] ; [0xd80] = 0x2623fe1c
        0x000009c2:    2237        7"      MOVS     r2,#0x37
        0x000009c4:    0492        ..      LSLS     r2,r2,#18
        0x000009c6:    210c        .!      MOVS     r1,#0xc
        0x000009c8:    4630        0F      MOV      r0,r6
        0x000009ca:    f7fffc35    ..5.    BL       CLK_SetModuleClock ; 0x238
        0x000009ce:    4fed        .O      LDR      r7,[pc,#948] ; [0xd84] = 0x27cc03f4
        0x000009d0:    2201        ."      MOVS     r2,#1
        0x000009d2:    0751        Q.      LSLS     r1,r2,#29
        0x000009d4:    4638        8F      MOV      r0,r7
        0x000009d6:    f7fffc2f    ../.    BL       CLK_SetModuleClock ; 0x238
        0x000009da:    2201        ."      MOVS     r2,#1
        0x000009dc:    07d1        ..      LSLS     r1,r2,#31
        0x000009de:    48ea        .H      LDR      r0,[pc,#936] ; [0xd88] = 0x27ec03f5
        0x000009e0:    f7fffc2a    ..*.    BL       CLK_SetModuleClock ; 0x238
        0x000009e4:    2201        ."      MOVS     r2,#1
        0x000009e6:    2120         !      MOVS     r1,#0x20
        0x000009e8:    48e8        .H      LDR      r0,[pc,#928] ; [0xd8c] = 0x664c03f6
        0x000009ea:    f7fffc25    ..%.    BL       CLK_SetModuleClock ; 0x238
        0x000009ee:    2200        ."      MOVS     r2,#0
        0x000009f0:    0421        !.      LSLS     r1,r4,#16
        0x000009f2:    48e7        .H      LDR      r0,[pc,#924] ; [0xd90] = 0x27803d10
        0x000009f4:    f7fffc20    .. .    BL       CLK_SetModuleClock ; 0x238
        0x000009f8:    2201        ."      MOVS     r2,#1
        0x000009fa:    0251        Q.      LSLS     r1,r2,#9
        0x000009fc:    48e5        .H      LDR      r0,[pc,#916] ; [0xd94] = 0x2e8c03e2
        0x000009fe:    f7fffc1b    ....    BL       CLK_SetModuleClock ; 0x238
        0x00000a02:    2201        ."      MOVS     r2,#1
        0x00000a04:    0351        Q.      LSLS     r1,r2,#13
        0x00000a06:    48e4        .H      LDR      r0,[pc,#912] ; [0xd98] = 0x2ecc03e3
        0x00000a08:    f7fffc16    ....    BL       CLK_SetModuleClock ; 0x238
        0x00000a0c:    6960        `i      LDR      r0,[r4,#0x14]
        0x00000a0e:    2110        .!      MOVS     r1,#0x10
        0x00000a10:    4308        .C      ORRS     r0,r0,r1
        0x00000a12:    6160        `a      STR      r0,[r4,#0x14]
        0x00000a14:    4628        (F      MOV      r0,r5
        0x00000a16:    f7fffc46    ..F.    BL       CLK_EnableModuleClock ; 0x2a6
        0x00000a1a:    48de        .H      LDR      r0,[pc,#888] ; [0xd94] = 0x2e8c03e2
        0x00000a1c:    f7fffc43    ..C.    BL       CLK_EnableModuleClock ; 0x2a6
        0x00000a20:    48dd        .H      LDR      r0,[pc,#884] ; [0xd98] = 0x2ecc03e3
        0x00000a22:    f7fffc40    ..@.    BL       CLK_EnableModuleClock ; 0x2a6
        0x00000a26:    48dd        .H      LDR      r0,[pc,#884] ; [0xd9c] = 0x224c03ec
        0x00000a28:    f7fffc3d    ..=.    BL       CLK_EnableModuleClock ; 0x2a6
        0x00000a2c:    48d8        .H      LDR      r0,[pc,#864] ; [0xd90] = 0x27803d10
        0x00000a2e:    f7fffc3a    ..:.    BL       CLK_EnableModuleClock ; 0x2a6
        0x00000a32:    4638        8F      MOV      r0,r7
        0x00000a34:    f7fffc37    ..7.    BL       CLK_EnableModuleClock ; 0x2a6
        0x00000a38:    48d3        .H      LDR      r0,[pc,#844] ; [0xd88] = 0x27ec03f5
        0x00000a3a:    f7fffc34    ..4.    BL       CLK_EnableModuleClock ; 0x2a6
        0x00000a3e:    48d3        .H      LDR      r0,[pc,#844] ; [0xd8c] = 0x664c03f6
        0x00000a40:    f7fffc31    ..1.    BL       CLK_EnableModuleClock ; 0x2a6
        0x00000a44:    4630        0F      MOV      r0,r6
        0x00000a46:    f7fffc2e    ....    BL       CLK_EnableModuleClock ; 0x2a6
        0x00000a4a:    48d5        .H      LDR      r0,[pc,#852] ; [0xda0] = 0x61fc03fe
        0x00000a4c:    f7fffc2b    ..+.    BL       CLK_EnableModuleClock ; 0x2a6
        0x00000a50:    bdf8        ..      POP      {r3-r7,pc}
    initIRQ
        0x00000a52:    b510        ..      PUSH     {r4,lr}
        0x00000a54:    2008        .       MOVS     r0,#8
        0x00000a56:    f000fa2a    ..*.    BL       NVIC_EnableIRQ ; 0xeae
        0x00000a5a:    2009        .       MOVS     r0,#9
        0x00000a5c:    f000fa27    ..'.    BL       NVIC_EnableIRQ ; 0xeae
        0x00000a60:    200e        .       MOVS     r0,#0xe
        0x00000a62:    f000fa24    ..$.    BL       NVIC_EnableIRQ ; 0xeae
        0x00000a66:    2019        .       MOVS     r0,#0x19
        0x00000a68:    f000fa21    ..!.    BL       NVIC_EnableIRQ ; 0xeae
        0x00000a6c:    2002        .       MOVS     r0,#2
        0x00000a6e:    f000fa1e    ....    BL       NVIC_EnableIRQ ; 0xeae
        0x00000a72:    201d        .       MOVS     r0,#0x1d
        0x00000a74:    f000fa1b    ....    BL       NVIC_EnableIRQ ; 0xeae
        0x00000a78:    2101        .!      MOVS     r1,#1
        0x00000a7a:    2008        .       MOVS     r0,#8
        0x00000a7c:    f7ffff6c    ..l.    BL       NVIC_SetPriority ; 0x958
        0x00000a80:    2101        .!      MOVS     r1,#1
        0x00000a82:    2009        .       MOVS     r0,#9
        0x00000a84:    f7ffff68    ..h.    BL       NVIC_SetPriority ; 0x958
        0x00000a88:    2103        .!      MOVS     r1,#3
        0x00000a8a:    200e        .       MOVS     r0,#0xe
        0x00000a8c:    f7ffff64    ..d.    BL       NVIC_SetPriority ; 0x958
        0x00000a90:    2102        .!      MOVS     r1,#2
        0x00000a92:    2019        .       MOVS     r0,#0x19
        0x00000a94:    f7ffff60    ..`.    BL       NVIC_SetPriority ; 0x958
        0x00000a98:    2100        .!      MOVS     r1,#0
        0x00000a9a:    2002        .       MOVS     r0,#2
        0x00000a9c:    f7ffff5c    ..\.    BL       NVIC_SetPriority ; 0x958
        0x00000aa0:    2103        .!      MOVS     r1,#3
        0x00000aa2:    201d        .       MOVS     r0,#0x1d
        0x00000aa4:    f7ffff58    ..X.    BL       NVIC_SetPriority ; 0x958
        0x00000aa8:    2201        ."      MOVS     r2,#1
        0x00000aaa:    2104        .!      MOVS     r1,#4
        0x00000aac:    48bd        .H      LDR      r0,[pc,#756] ; [0xda4] = 0x500040c0
        0x00000aae:    f7fffc4f    ..O.    BL       GPIO_EnableInt ; 0x350
        0x00000ab2:    bd10        ..      POP      {r4,pc}
    initGPIO
        0x00000ab4:    b5f8        ..      PUSH     {r3-r7,lr}
        0x00000ab6:    4cbb        .L      LDR      r4,[pc,#748] ; [0xda4] = 0x500040c0
        0x00000ab8:    2201        ."      MOVS     r2,#1
        0x00000aba:    3480        .4      ADDS     r4,r4,#0x80
        0x00000abc:    2110        .!      MOVS     r1,#0x10
        0x00000abe:    4620         F      MOV      r0,r4
        0x00000ac0:    f7fffc32    ..2.    BL       GPIO_SetMode ; 0x328
        0x00000ac4:    4db7        .M      LDR      r5,[pc,#732] ; [0xda4] = 0x500040c0
        0x00000ac6:    2201        ."      MOVS     r2,#1
        0x00000ac8:    4611        .F      MOV      r1,r2
        0x00000aca:    4628        (F      MOV      r0,r5
        0x00000acc:    f7fffc2c    ..,.    BL       GPIO_SetMode ; 0x328
        0x00000ad0:    48b5        .H      LDR      r0,[pc,#724] ; [0xda8] = 0x50004240
        0x00000ad2:    2700        .'      MOVS     r7,#0
        0x00000ad4:    6207        .b      STR      r7,[r0,#0x20]
        0x00000ad6:    463a        :F      MOV      r2,r7
        0x00000ad8:    2104        .!      MOVS     r1,#4
        0x00000ada:    4628        (F      MOV      r0,r5
        0x00000adc:    f7fffc24    ..$.    BL       GPIO_SetMode ; 0x328
        0x00000ae0:    48b0        .H      LDR      r0,[pc,#704] ; [0xda4] = 0x500040c0
        0x00000ae2:    2201        ."      MOVS     r2,#1
        0x00000ae4:    217c        |!      MOVS     r1,#0x7c
        0x00000ae6:    3840        @8      SUBS     r0,r0,#0x40
        0x00000ae8:    f7fffc1e    ....    BL       GPIO_SetMode ; 0x328
        0x00000aec:    4ead        .N      LDR      r6,[pc,#692] ; [0xda4] = 0x500040c0
        0x00000aee:    2201        ."      MOVS     r2,#1
        0x00000af0:    3ec0        .>      SUBS     r6,r6,#0xc0
        0x00000af2:    2110        .!      MOVS     r1,#0x10
        0x00000af4:    4630        0F      MOV      r0,r6
        0x00000af6:    f7fffc17    ....    BL       GPIO_SetMode ; 0x328
        0x00000afa:    2200        ."      MOVS     r2,#0
        0x00000afc:    21a2        .!      MOVS     r1,#0xa2
        0x00000afe:    4630        0F      MOV      r0,r6
        0x00000b00:    f7fffc12    ....    BL       GPIO_SetMode ; 0x328
        0x00000b04:    2201        ."      MOVS     r2,#1
        0x00000b06:    2140        @!      MOVS     r1,#0x40
        0x00000b08:    4630        0F      MOV      r0,r6
        0x00000b0a:    f7fffc0d    ....    BL       GPIO_SetMode ; 0x328
        0x00000b0e:    2201        ."      MOVS     r2,#1
        0x00000b10:    4611        .F      MOV      r1,r2
        0x00000b12:    4630        0F      MOV      r0,r6
        0x00000b14:    f7fffc08    ....    BL       GPIO_SetMode ; 0x328
        0x00000b18:    4ea2        .N      LDR      r6,[pc,#648] ; [0xda4] = 0x500040c0
        0x00000b1a:    2200        ."      MOVS     r2,#0
        0x00000b1c:    3e80        .>      SUBS     r6,r6,#0x80
        0x00000b1e:    2104        .!      MOVS     r1,#4
        0x00000b20:    4630        0F      MOV      r0,r6
        0x00000b22:    f7fffc01    ....    BL       GPIO_SetMode ; 0x328
        0x00000b26:    2201        ."      MOVS     r2,#1
        0x00000b28:    2140        @!      MOVS     r1,#0x40
        0x00000b2a:    4628        (F      MOV      r0,r5
        0x00000b2c:    f7fffbfc    ....    BL       GPIO_SetMode ; 0x328
        0x00000b30:    2201        ."      MOVS     r2,#1
        0x00000b32:    4611        .F      MOV      r1,r2
        0x00000b34:    4620         F      MOV      r0,r4
        0x00000b36:    f7fffbf7    ....    BL       GPIO_SetMode ; 0x328
        0x00000b3a:    489b        .H      LDR      r0,[pc,#620] ; [0xda8] = 0x50004240
        0x00000b3c:    3040        @0      ADDS     r0,r0,#0x40
        0x00000b3e:    6207        .b      STR      r7,[r0,#0x20]
        0x00000b40:    6860        `h      LDR      r0,[r4,#4]
        0x00000b42:    2101        .!      MOVS     r1,#1
        0x00000b44:    04c9        ..      LSLS     r1,r1,#19
        0x00000b46:    4308        .C      ORRS     r0,r0,r1
        0x00000b48:    6060        ``      STR      r0,[r4,#4]
        0x00000b4a:    2200        ."      MOVS     r2,#0
        0x00000b4c:    2108        .!      MOVS     r1,#8
        0x00000b4e:    4620         F      MOV      r0,r4
        0x00000b50:    f7fffbea    ....    BL       GPIO_SetMode ; 0x328
        0x00000b54:    6868        hh      LDR      r0,[r5,#4]
        0x00000b56:    2101        .!      MOVS     r1,#1
        0x00000b58:    0449        I.      LSLS     r1,r1,#17
        0x00000b5a:    4308        .C      ORRS     r0,r0,r1
        0x00000b5c:    6068        h`      STR      r0,[r5,#4]
        0x00000b5e:    2200        ."      MOVS     r2,#0
        0x00000b60:    2102        .!      MOVS     r1,#2
        0x00000b62:    4628        (F      MOV      r0,r5
        0x00000b64:    f7fffbe0    ....    BL       GPIO_SetMode ; 0x328
        0x00000b68:    6870        ph      LDR      r0,[r6,#4]
        0x00000b6a:    2139        9!      MOVS     r1,#0x39
        0x00000b6c:    0409        ..      LSLS     r1,r1,#16
        0x00000b6e:    4308        .C      ORRS     r0,r0,r1
        0x00000b70:    6070        p`      STR      r0,[r6,#4]
        0x00000b72:    2200        ."      MOVS     r2,#0
        0x00000b74:    2139        9!      MOVS     r1,#0x39
        0x00000b76:    4630        0F      MOV      r0,r6
        0x00000b78:    f7fffbd6    ....    BL       GPIO_SetMode ; 0x328
        0x00000b7c:    05a0        ..      LSLS     r0,r4,#22
        0x00000b7e:    6b01        .k      LDR      r1,[r0,#0x30]
        0x00000b80:    4a8a        .J      LDR      r2,[pc,#552] ; [0xdac] = 0xfefffefe
        0x00000b82:    4011        .@      ANDS     r1,r1,r2
        0x00000b84:    6301        .c      STR      r1,[r0,#0x30]
        0x00000b86:    6b01        .k      LDR      r1,[r0,#0x30]
        0x00000b88:    22ff        ."      MOVS     r2,#0xff
        0x00000b8a:    3202        .2      ADDS     r2,#2
        0x00000b8c:    4311        .C      ORRS     r1,r1,r2
        0x00000b8e:    6301        .c      STR      r1,[r0,#0x30]
        0x00000b90:    6b41        Ak      LDR      r1,[r0,#0x34]
        0x00000b92:    4c87        .L      LDR      r4,[pc,#540] ; [0xdb0] = 0xfffffbfb
        0x00000b94:    4021        !@      ANDS     r1,r1,r4
        0x00000b96:    6341        Ac      STR      r1,[r0,#0x34]
        0x00000b98:    6b41        Ak      LDR      r1,[r0,#0x34]
        0x00000b9a:    2301        .#      MOVS     r3,#1
        0x00000b9c:    029b        ..      LSLS     r3,r3,#10
        0x00000b9e:    4319        .C      ORRS     r1,r1,r3
        0x00000ba0:    6341        Ac      STR      r1,[r0,#0x34]
        0x00000ba2:    6b01        .k      LDR      r1,[r0,#0x30]
        0x00000ba4:    4b83        .K      LDR      r3,[pc,#524] ; [0xdb4] = 0xe002
        0x00000ba6:    4319        .C      ORRS     r1,r1,r3
        0x00000ba8:    6301        .c      STR      r1,[r0,#0x30]
        0x00000baa:    4983        .I      LDR      r1,[pc,#524] ; [0xdb8] = 0x50000040
        0x00000bac:    684b        Kh      LDR      r3,[r1,#4]
        0x00000bae:    4d83        .M      LDR      r5,[pc,#524] ; [0xdbc] = 0xfffff7f7
        0x00000bb0:    402b        +@      ANDS     r3,r3,r5
        0x00000bb2:    604b        K`      STR      r3,[r1,#4]
        0x00000bb4:    684b        Kh      LDR      r3,[r1,#4]
        0x00000bb6:    2508        .%      MOVS     r5,#8
        0x00000bb8:    432b        +C      ORRS     r3,r3,r5
        0x00000bba:    604b        K`      STR      r3,[r1,#4]
        0x00000bbc:    6bc3        .k      LDR      r3,[r0,#0x3c]
        0x00000bbe:    1065        e.      ASRS     r5,r4,#1
        0x00000bc0:    402b        +@      ANDS     r3,r3,r5
        0x00000bc2:    63c3        .c      STR      r3,[r0,#0x3c]
        0x00000bc4:    6bc3        .k      LDR      r3,[r0,#0x3c]
        0x00000bc6:    0055        U.      LSLS     r5,r2,#1
        0x00000bc8:    432b        +C      ORRS     r3,r3,r5
        0x00000bca:    63c3        .c      STR      r3,[r0,#0x3c]
        0x00000bcc:    6bc3        .k      LDR      r3,[r0,#0x3c]
        0x00000bce:    4d7c        |M      LDR      r5,[pc,#496] ; [0xdc0] = 0xffffbfbf
        0x00000bd0:    402b        +@      ANDS     r3,r3,r5
        0x00000bd2:    63c3        .c      STR      r3,[r0,#0x3c]
        0x00000bd4:    6bc3        .k      LDR      r3,[r0,#0x3c]
        0x00000bd6:    0195        ..      LSLS     r5,r2,#6
        0x00000bd8:    432b        +C      ORRS     r3,r3,r5
        0x00000bda:    63c3        .c      STR      r3,[r0,#0x3c]
        0x00000bdc:    684b        Kh      LDR      r3,[r1,#4]
        0x00000bde:    4393        .C      BICS     r3,r3,r2
        0x00000be0:    604b        K`      STR      r3,[r1,#4]
        0x00000be2:    684a        Jh      LDR      r2,[r1,#4]
        0x00000be4:    604a        J`      STR      r2,[r1,#4]
        0x00000be6:    6b41        Ak      LDR      r1,[r0,#0x34]
        0x00000be8:    4b76        vK      LDR      r3,[pc,#472] ; [0xdc4] = 0xffffefef
        0x00000bea:    4019        .@      ANDS     r1,r1,r3
        0x00000bec:    6341        Ac      STR      r1,[r0,#0x34]
        0x00000bee:    6b42        Bk      LDR      r2,[r0,#0x34]
        0x00000bf0:    10a9        ..      ASRS     r1,r5,#2
        0x00000bf2:    430a        .C      ORRS     r2,r2,r1
        0x00000bf4:    6342        Bc      STR      r2,[r0,#0x34]
        0x00000bf6:    6b82        .k      LDR      r2,[r0,#0x38]
        0x00000bf8:    4d73        sM      LDR      r5,[pc,#460] ; [0xdc8] = 0xffff8383
        0x00000bfa:    402a        *@      ANDS     r2,r2,r5
        0x00000bfc:    6382        .c      STR      r2,[r0,#0x38]
        0x00000bfe:    221f        ."      MOVS     r2,#0x1f
        0x00000c00:    0292        ..      LSLS     r2,r2,#10
        0x00000c02:    6382        .c      STR      r2,[r0,#0x38]
        0x00000c04:    6b02        .k      LDR      r2,[r0,#0x30]
        0x00000c06:    401a        .@      ANDS     r2,r2,r3
        0x00000c08:    6302        .c      STR      r2,[r0,#0x30]
        0x00000c0a:    6b02        .k      LDR      r2,[r0,#0x30]
        0x00000c0c:    430a        .C      ORRS     r2,r2,r1
        0x00000c0e:    6302        .c      STR      r2,[r0,#0x30]
        0x00000c10:    6bc1        .k      LDR      r1,[r0,#0x3c]
        0x00000c12:    4021        !@      ANDS     r1,r1,r4
        0x00000c14:    63c1        .c      STR      r1,[r0,#0x3c]
        0x00000c16:    6bc1        .k      LDR      r1,[r0,#0x3c]
        0x00000c18:    2204        ."      MOVS     r2,#4
        0x00000c1a:    4311        .C      ORRS     r1,r1,r2
        0x00000c1c:    63c1        .c      STR      r1,[r0,#0x3c]
        0x00000c1e:    bdf8        ..      POP      {r3-r7,pc}
    configTIM
        0x00000c20:    486b        kH      LDR      r0,[pc,#428] ; [0xdd0] = 0x40010000
        0x00000c22:    496a        jI      LDR      r1,[pc,#424] ; [0xdcc] = 0xc03000a
        0x00000c24:    6001        .`      STR      r1,[r0,#0]
        0x00000c26:    496b        kI      LDR      r1,[pc,#428] ; [0xdd4] = 0x1c01000a
        0x00000c28:    6201        .b      STR      r1,[r0,#0x20]
        0x00000c2a:    4770        pG      BX       lr
    configADC
        0x00000c2c:    b510        ..      PUSH     {r4,lr}
        0x00000c2e:    4c6a        jL      LDR      r4,[pc,#424] ; [0xdd8] = 0x400e0000
        0x00000c30:    2205        ."      MOVS     r2,#5
        0x00000c32:    2100        .!      MOVS     r1,#0
        0x00000c34:    4620         F      MOV      r0,r4
        0x00000c36:    f7fffa81    ....    BL       ADC_SetExtraSampleTime ; 0x13c
        0x00000c3a:    6a20         j      LDR      r0,[r4,#0x20]
        0x00000c3c:    2101        .!      MOVS     r1,#1
        0x00000c3e:    4308        .C      ORRS     r0,r0,r1
        0x00000c40:    6220         b      STR      r0,[r4,#0x20]
        0x00000c42:    4866        fH      LDR      r0,[pc,#408] ; [0xddc] = 0x440b05
        0x00000c44:    62a0        .b      STR      r0,[r4,#0x28]
        0x00000c46:    4866        fH      LDR      r0,[pc,#408] ; [0xde0] = 0x15c0f39
        0x00000c48:    62e0        .b      STR      r0,[r4,#0x2c]
        0x00000c4a:    4620         F      MOV      r0,r4
        0x00000c4c:    f7fffa7d    ..}.    BL       ADC_EnableInt ; 0x14a
        0x00000c50:    2102        .!      MOVS     r1,#2
        0x00000c52:    4620         F      MOV      r0,r4
        0x00000c54:    f7fffa79    ..y.    BL       ADC_EnableInt ; 0x14a
        0x00000c58:    2104        .!      MOVS     r1,#4
        0x00000c5a:    4620         F      MOV      r0,r4
        0x00000c5c:    f7fffa75    ..u.    BL       ADC_EnableInt ; 0x14a
        0x00000c60:    6a60        `j      LDR      r0,[r4,#0x24]
        0x00000c62:    0a00        ..      LSRS     r0,r0,#8
        0x00000c64:    0200        ..      LSLS     r0,r0,#8
        0x00000c66:    3080        .0      ADDS     r0,r0,#0x80
        0x00000c68:    6260        `b      STR      r0,[r4,#0x24]
        0x00000c6a:    6a20         j      LDR      r0,[r4,#0x20]
        0x00000c6c:    2101        .!      MOVS     r1,#1
        0x00000c6e:    02c9        ..      LSLS     r1,r1,#11
        0x00000c70:    4308        .C      ORRS     r0,r0,r1
        0x00000c72:    6220         b      STR      r0,[r4,#0x20]
        0x00000c74:    bd10        ..      POP      {r4,pc}
    configSPI
        0x00000c76:    b538        8.      PUSH     {r3-r5,lr}
        0x00000c78:    4c5a        ZL      LDR      r4,[pc,#360] ; [0xde4] = 0x40030000
        0x00000c7a:    4620         F      MOV      r0,r4
        0x00000c7c:    f7fffd35    ..5.    BL       SPI_Close ; 0x6ea
        0x00000c80:    4620         F      MOV      r0,r4
        0x00000c82:    f7fffd41    ..A.    BL       SPI_ClearRxFIFO ; 0x708
        0x00000c86:    4620         F      MOV      r0,r4
        0x00000c88:    f7fffd43    ..C.    BL       SPI_ClearTxFIFO ; 0x712
        0x00000c8c:    2000        .       MOVS     r0,#0
        0x00000c8e:    2204        ."      MOVS     r2,#4
        0x00000c90:    9000        ..      STR      r0,[sp,#0]
        0x00000c92:    2320         #      MOVS     r3,#0x20
        0x00000c94:    0411        ..      LSLS     r1,r2,#16
        0x00000c96:    4620         F      MOV      r0,r4
        0x00000c98:    f7fffcf8    ....    BL       SPI_Open ; 0x68c
        0x00000c9c:    6820         h      LDR      r0,[r4,#0]
        0x00000c9e:    1521        !.      ASRS     r1,r4,#20
        0x00000ca0:    4388        .C      BICS     r0,r0,r1
        0x00000ca2:    6020         `      STR      r0,[r4,#0]
        0x00000ca4:    68a0        .h      LDR      r0,[r4,#8]
        0x00000ca6:    2110        .!      MOVS     r1,#0x10
        0x00000ca8:    4388        .C      BICS     r0,r0,r1
        0x00000caa:    60a0        .`      STR      r0,[r4,#8]
        0x00000cac:    68a0        .h      LDR      r0,[r4,#8]
        0x00000cae:    2104        .!      MOVS     r1,#4
        0x00000cb0:    4388        .C      BICS     r0,r0,r1
        0x00000cb2:    60a0        .`      STR      r0,[r4,#8]
        0x00000cb4:    460a        .F      MOV      r2,r1
        0x00000cb6:    4620         F      MOV      r0,r4
        0x00000cb8:    f7fffd5e    ..^.    BL       SPI_EnableFIFO ; 0x778
        0x00000cbc:    2101        .!      MOVS     r1,#1
        0x00000cbe:    4620         F      MOV      r0,r4
        0x00000cc0:    f7fffd7b    ..{.    BL       SPI_EnableInt ; 0x7ba
        0x00000cc4:    bd38        8.      POP      {r3-r5,pc}
    initPWM
        0x00000cc6:    b570        p.      PUSH     {r4-r6,lr}
        0x00000cc8:    4c47        GL      LDR      r4,[pc,#284] ; [0xde8] = 0x40040000
        0x00000cca:    213f        ?!      MOVS     r1,#0x3f
        0x00000ccc:    4620         F      MOV      r0,r4
        0x00000cce:    f7fffbd9    ....    BL       PWM_Stop ; 0x484
        0x00000cd2:    6820         h      LDR      r0,[r4,#0]
        0x00000cd4:    0a00        ..      LSRS     r0,r0,#8
        0x00000cd6:    0200        ..      LSLS     r0,r0,#8
        0x00000cd8:    1c40        @.      ADDS     r0,r0,#1
        0x00000cda:    6020         `      STR      r0,[r4,#0]
        0x00000cdc:    6820         h      LDR      r0,[r4,#0]
        0x00000cde:    21ff        .!      MOVS     r1,#0xff
        0x00000ce0:    0209        ..      LSLS     r1,r1,#8
        0x00000ce2:    4388        .C      BICS     r0,r0,r1
        0x00000ce4:    30ff        .0      ADDS     r0,r0,#0xff
        0x00000ce6:    3001        .0      ADDS     r0,#1
        0x00000ce8:    6020         `      STR      r0,[r4,#0]
        0x00000cea:    6820         h      LDR      r0,[r4,#0]
        0x00000cec:    0209        ..      LSLS     r1,r1,#8
        0x00000cee:    4388        .C      BICS     r0,r0,r1
        0x00000cf0:    2101        .!      MOVS     r1,#1
        0x00000cf2:    0409        ..      LSLS     r1,r1,#16
        0x00000cf4:    1840        @.      ADDS     r0,r0,r1
        0x00000cf6:    6020         `      STR      r0,[r4,#0]
        0x00000cf8:    6860        `h      LDR      r0,[r4,#4]
        0x00000cfa:    08c0        ..      LSRS     r0,r0,#3
        0x00000cfc:    00c0        ..      LSLS     r0,r0,#3
        0x00000cfe:    1d00        ..      ADDS     r0,r0,#4
        0x00000d00:    6060        ``      STR      r0,[r4,#4]
        0x00000d02:    6860        `h      LDR      r0,[r4,#4]
        0x00000d04:    2170        p!      MOVS     r1,#0x70
        0x00000d06:    4388        .C      BICS     r0,r0,r1
        0x00000d08:    3040        @0      ADDS     r0,r0,#0x40
        0x00000d0a:    6060        ``      STR      r0,[r4,#4]
        0x00000d0c:    6860        `h      LDR      r0,[r4,#4]
        0x00000d0e:    0109        ..      LSLS     r1,r1,#4
        0x00000d10:    4388        .C      BICS     r0,r0,r1
        0x00000d12:    1521        !.      ASRS     r1,r4,#20
        0x00000d14:    1840        @.      ADDS     r0,r0,r1
        0x00000d16:    6060        ``      STR      r0,[r4,#4]
        0x00000d18:    6860        `h      LDR      r0,[r4,#4]
        0x00000d1a:    2107        .!      MOVS     r1,#7
        0x00000d1c:    0309        ..      LSLS     r1,r1,#12
        0x00000d1e:    4388        .C      BICS     r0,r0,r1
        0x00000d20:    2101        .!      MOVS     r1,#1
        0x00000d22:    0389        ..      LSLS     r1,r1,#14
        0x00000d24:    1840        @.      ADDS     r0,r0,r1
        0x00000d26:    6060        ``      STR      r0,[r4,#4]
        0x00000d28:    6860        `h      LDR      r0,[r4,#4]
        0x00000d2a:    2107        .!      MOVS     r1,#7
        0x00000d2c:    0409        ..      LSLS     r1,r1,#16
        0x00000d2e:    4388        .C      BICS     r0,r0,r1
        0x00000d30:    2101        .!      MOVS     r1,#1
        0x00000d32:    0489        ..      LSLS     r1,r1,#18
        0x00000d34:    1840        @.      ADDS     r0,r0,r1
        0x00000d36:    6060        ``      STR      r0,[r4,#4]
        0x00000d38:    6860        `h      LDR      r0,[r4,#4]
        0x00000d3a:    2107        .!      MOVS     r1,#7
        0x00000d3c:    0509        ..      LSLS     r1,r1,#20
        0x00000d3e:    4388        .C      BICS     r0,r0,r1
        0x00000d40:    0121        !.      LSLS     r1,r4,#4
        0x00000d42:    1840        @.      ADDS     r0,r0,r1
        0x00000d44:    6060        ``      STR      r0,[r4,#4]
        0x00000d46:    4829        )H      LDR      r0,[pc,#164] ; [0xdec] = 0x8dddddf
        0x00000d48:    60a0        .`      STR      r0,[r4,#8]
        0x00000d4a:    2500        .%      MOVS     r5,#0
        0x00000d4c:    6265        eb      STR      r5,[r4,#0x24]
        0x00000d4e:    62a5        .b      STR      r5,[r4,#0x28]
        0x00000d50:    62e5        .b      STR      r5,[r4,#0x2c]
        0x00000d52:    6325        %c      STR      r5,[r4,#0x30]
        0x00000d54:    6365        ec      STR      r5,[r4,#0x34]
        0x00000d56:    63a5        .c      STR      r5,[r4,#0x38]
        0x00000d58:    4825        %H      LDR      r0,[pc,#148] ; [0xdf0] = 0x373
        0x00000d5a:    60e0        .`      STR      r0,[r4,#0xc]
        0x00000d5c:    6120         a      STR      r0,[r4,#0x10]
        0x00000d5e:    6160        `a      STR      r0,[r4,#0x14]
        0x00000d60:    61a0        .a      STR      r0,[r4,#0x18]
        0x00000d62:    61e0        .a      STR      r0,[r4,#0x1c]
        0x00000d64:    6220         b      STR      r0,[r4,#0x20]
        0x00000d66:    213f        ?!      MOVS     r1,#0x3f
        0x00000d68:    4620         F      MOV      r0,r4
        0x00000d6a:    f7fffbfe    ....    BL       PWM_EnableOutput ; 0x56a
        0x00000d6e:    e041        A.      B        0xdf4 ; initPWM + 302
    $d
        0x00000d70:    e000ed00    ....    DCD    3758157056
        0x00000d74:    e000e400    ....    DCD    3758154752
        0x00000d78:    50000200    ...P    DCD    1342177792
        0x00000d7c:    260c03e0    ...&    DCD    638321632
        0x00000d80:    2623fe1c    ..#&    DCD    639893020
        0x00000d84:    27cc03f4    ...'    DCD    667681780
        0x00000d88:    27ec03f5    ...'    DCD    669778933
        0x00000d8c:    664c03f6    ..Lf    DCD    1716257782
        0x00000d90:    27803d10    .=.'    DCD    662715664
        0x00000d94:    2e8c03e2    ....    DCD    780927970
        0x00000d98:    2ecc03e3    ....    DCD    785122275
        0x00000d9c:    224c03ec    ..L"    DCD    575407084
        0x00000da0:    61fc03fe    ...a    DCD    1643906046
        0x00000da4:    500040c0    .@.P    DCD    1342193856
        0x00000da8:    50004240    @B.P    DCD    1342194240
        0x00000dac:    fefffefe    ....    DCD    4278189822
        0x00000db0:    fffffbfb    ....    DCD    4294966267
        0x00000db4:    0000e002    ....    DCD    57346
        0x00000db8:    50000040    @..P    DCD    1342177344
        0x00000dbc:    fffff7f7    ....    DCD    4294965239
        0x00000dc0:    ffffbfbf    ....    DCD    4294950847
        0x00000dc4:    ffffefef    ....    DCD    4294963183
        0x00000dc8:    ffff8383    ....    DCD    4294935427
        0x00000dcc:    0c03000a    ....    DCD    201523210
        0x00000dd0:    40010000    ...@    DCD    1073807360
        0x00000dd4:    1c01000a    ....    DCD    469827594
        0x00000dd8:    400e0000    ...@    DCD    1074659328
        0x00000ddc:    00440b05    ..D.    DCD    4459269
        0x00000de0:    015c0f39    9.\.    DCD    22810425
        0x00000de4:    40030000    ...@    DCD    1073938432
        0x00000de8:    40040000    ...@    DCD    1074003968
        0x00000dec:    08dddddf    ....    DCD    148757983
        0x00000df0:    00000373    s...    DCD    883
    $t
        0x00000df4:    4831        1H      LDR      r0,[pc,#196] ; [0xebc] = 0x40040000
        0x00000df6:    3040        @0      ADDS     r0,r0,#0x40
        0x00000df8:    6145        Ea      STR      r5,[r0,#0x14]
        0x00000dfa:    f000fe4f    ..O.    BL       BLDC_stopMotor ; 0x1a9c
        0x00000dfe:    492f        /I      LDR      r1,[pc,#188] ; [0xebc] = 0x40040000
        0x00000e00:    15a0        ..      ASRS     r0,r4,#22
        0x00000e02:    3180        .1      ADDS     r1,r1,#0x80
        0x00000e04:    6008        .`      STR      r0,[r1,#0]
        0x00000e06:    bd70        p.      POP      {r4-r6,pc}
    initSys
        0x00000e08:    b510        ..      PUSH     {r4,lr}
        0x00000e0a:    f7fffd58    ..X.    BL       SYS_UnlockReg ; 0x8be
        0x00000e0e:    f7fffdc1    ....    BL       initClk ; 0x994
        0x00000e12:    f000fc87    ....    BL       SystemCoreClockUpdate ; 0x1724
        0x00000e16:    4c2b        +L      LDR      r4,[pc,#172] ; [0xec4] = 0xe000e000
        0x00000e18:    4829        )H      LDR      r0,[pc,#164] ; [0xec0] = 0x1affe
        0x00000e1a:    6160        `a      STR      r0,[r4,#0x14]
        0x00000e1c:    2103        .!      MOVS     r1,#3
        0x00000e1e:    1f08        ..      SUBS     r0,r1,#4
        0x00000e20:    f7fffd9a    ....    BL       NVIC_SetPriority ; 0x958
        0x00000e24:    2000        .       MOVS     r0,#0
        0x00000e26:    61a0        .a      STR      r0,[r4,#0x18]
        0x00000e28:    2007        .       MOVS     r0,#7
        0x00000e2a:    6120         a      STR      r0,[r4,#0x10]
        0x00000e2c:    f7ffff4b    ..K.    BL       initPWM ; 0xcc6
        0x00000e30:    f7fffe40    ..@.    BL       initGPIO ; 0xab4
        0x00000e34:    f7fffefa    ....    BL       configADC ; 0xc2c
        0x00000e38:    f7fffef2    ....    BL       configTIM ; 0xc20
        0x00000e3c:    f7ffff1b    ....    BL       configSPI ; 0xc76
        0x00000e40:    f7fffe07    ....    BL       initIRQ ; 0xa52
        0x00000e44:    f7fffd37    ..7.    BL       SYS_LockReg ; 0x8b6
        0x00000e48:    bd10        ..      POP      {r4,pc}
    initEnv
        0x00000e4a:    491f        .I      LDR      r1,[pc,#124] ; [0xec8] = 0x20000240
        0x00000e4c:    2000        .       MOVS     r0,#0
        0x00000e4e:    6008        .`      STR      r0,[r1,#0]
        0x00000e50:    491e        .I      LDR      r1,[pc,#120] ; [0xecc] = 0x20000244
        0x00000e52:    6008        .`      STR      r0,[r1,#0]
        0x00000e54:    491e        .I      LDR      r1,[pc,#120] ; [0xed0] = 0x20000028
        0x00000e56:    6008        .`      STR      r0,[r1,#0]
        0x00000e58:    481e        .H      LDR      r0,[pc,#120] ; [0xed4] = 0x20000290
        0x00000e5a:    8841        A.      LDRH     r1,[r0,#2]
        0x00000e5c:    2210        ."      MOVS     r2,#0x10
        0x00000e5e:    4391        .C      BICS     r1,r1,r2
        0x00000e60:    8041        A.      STRH     r1,[r0,#2]
        0x00000e62:    4770        pG      BX       lr
    main
        0x00000e64:    f7ffffd0    ....    BL       initSys ; 0xe08
        0x00000e68:    f7ffffef    ....    BL       initEnv ; 0xe4a
        0x00000e6c:    f000fc28    ..(.    BL       PTC_checkMotor ; 0x16c0
        0x00000e70:    4919        .I      LDR      r1,[pc,#100] ; [0xed8] = 0x50004240
        0x00000e72:    2000        .       MOVS     r0,#0
        0x00000e74:    6208        .b      STR      r0,[r1,#0x20]
        0x00000e76:    4a11        .J      LDR      r2,[pc,#68] ; [0xebc] = 0x40040000
        0x00000e78:    3240        @2      ADDS     r2,r2,#0x40
        0x00000e7a:    6150        Pa      STR      r0,[r2,#0x14]
        0x00000e7c:    4817        .H      LDR      r0,[pc,#92] ; [0xedc] = 0x40010000
        0x00000e7e:    6801        .h      LDR      r1,[r0,#0]
        0x00000e80:    0383        ..      LSLS     r3,r0,#14
        0x00000e82:    4399        .C      BICS     r1,r1,r3
        0x00000e84:    6001        .`      STR      r1,[r0,#0]
        0x00000e86:    4915        .I      LDR      r1,[pc,#84] ; [0xedc] = 0x40010000
        0x00000e88:    3120         1      ADDS     r1,r1,#0x20
        0x00000e8a:    680c        .h      LDR      r4,[r1,#0]
        0x00000e8c:    439c        .C      BICS     r4,r4,r3
        0x00000e8e:    600c        .`      STR      r4,[r1,#0]
        0x00000e90:    6804        .h      LDR      r4,[r0,#0]
        0x00000e92:    0343        C.      LSLS     r3,r0,#13
        0x00000e94:    439c        .C      BICS     r4,r4,r3
        0x00000e96:    6004        .`      STR      r4,[r0,#0]
        0x00000e98:    6808        .h      LDR      r0,[r1,#0]
        0x00000e9a:    4398        .C      BICS     r0,r0,r3
        0x00000e9c:    6008        .`      STR      r0,[r1,#0]
        0x00000e9e:    20ff        .       MOVS     r0,#0xff
        0x00000ea0:    63d0        .c      STR      r0,[r2,#0x3c]
        0x00000ea2:    6390        .c      STR      r0,[r2,#0x38]
        0x00000ea4:    f000f898    ....    BL       BLDC_SensorLessManager ; 0xfd8
        0x00000ea8:    f000f9ff    ....    BL       COMM_Manager ; 0x12aa
        0x00000eac:    e7fa        ..      B        0xea4 ; main + 64
    NVIC_EnableIRQ
        0x00000eae:    06c1        ..      LSLS     r1,r0,#27
        0x00000eb0:    0ec9        ..      LSRS     r1,r1,#27
        0x00000eb2:    2001        .       MOVS     r0,#1
        0x00000eb4:    4088        .@      LSLS     r0,r0,r1
        0x00000eb6:    490a        .I      LDR      r1,[pc,#40] ; [0xee0] = 0xe000e100
        0x00000eb8:    6008        .`      STR      r0,[r1,#0]
        0x00000eba:    4770        pG      BX       lr
    $d
        0x00000ebc:    40040000    ...@    DCD    1074003968
        0x00000ec0:    0001affe    ....    DCD    110590
        0x00000ec4:    e000e000    ....    DCD    3758153728
        0x00000ec8:    20000240    @..     DCD    536871488
        0x00000ecc:    20000244    D..     DCD    536871492
        0x00000ed0:    20000028    (..     DCD    536870952
        0x00000ed4:    20000290    ...     DCD    536871568
        0x00000ed8:    50004240    @B.P    DCD    1342194240
        0x00000edc:    40010000    ...@    DCD    1073807360
        0x00000ee0:    e000e100    ....    DCD    3758153984
    $t
    .text
    canMotorContinueRunning
        0x00000ee4:    2000        .       MOVS     r0,#0
        0x00000ee6:    4770        pG      BX       lr
    BLDCSpeedManager
        0x00000ee8:    b510        ..      PUSH     {r4,lr}
        0x00000eea:    4cb4        .L      LDR      r4,[pc,#720] ; [0x11bc] = 0x20000004
        0x00000eec:    79a0        .y      LDRB     r0,[r4,#6]
        0x00000eee:    2801        .(      CMP      r0,#1
        0x00000ef0:    d133        3.      BNE      0xf5a ; BLDCSpeedManager + 114
        0x00000ef2:    f000fe03    ....    BL       PhaseChangedRoutine ; 0x1afc
        0x00000ef6:    49b2        .I      LDR      r1,[pc,#712] ; [0x11c0] = 0x20000290
        0x00000ef8:    8988        ..      LDRH     r0,[r1,#0xc]
        0x00000efa:    894a        J.      LDRH     r2,[r1,#0xa]
        0x00000efc:    4290        .B      CMP      r0,r2
        0x00000efe:    d017        ..      BEQ      0xf30 ; BLDCSpeedManager + 72
        0x00000f00:    7920         y      LDRB     r0,[r4,#4]
        0x00000f02:    2805        .(      CMP      r0,#5
        0x00000f04:    d911        ..      BLS      0xf2a ; BLDCSpeedManager + 66
        0x00000f06:    2000        .       MOVS     r0,#0
        0x00000f08:    7120         q      STRB     r0,[r4,#4]
        0x00000f0a:    8988        ..      LDRH     r0,[r1,#0xc]
        0x00000f0c:    894a        J.      LDRH     r2,[r1,#0xa]
        0x00000f0e:    4290        .B      CMP      r0,r2
        0x00000f10:    8988        ..      LDRH     r0,[r1,#0xc]
        0x00000f12:    d201        ..      BCS      0xf18 ; BLDCSpeedManager + 48
        0x00000f14:    1c40        @.      ADDS     r0,r0,#1
        0x00000f16:    e000        ..      B        0xf1a ; BLDCSpeedManager + 50
        0x00000f18:    1e40        @.      SUBS     r0,r0,#1
        0x00000f1a:    8188        ..      STRH     r0,[r1,#0xc]
        0x00000f1c:    898a        ..      LDRH     r2,[r1,#0xc]
        0x00000f1e:    48a9        .H      LDR      r0,[pc,#676] ; [0x11c4] = 0x40040000
        0x00000f20:    6282        .b      STR      r2,[r0,#0x28]
        0x00000f22:    898a        ..      LDRH     r2,[r1,#0xc]
        0x00000f24:    6302        .c      STR      r2,[r0,#0x30]
        0x00000f26:    898a        ..      LDRH     r2,[r1,#0xc]
        0x00000f28:    6382        .c      STR      r2,[r0,#0x38]
        0x00000f2a:    7920         y      LDRB     r0,[r4,#4]
        0x00000f2c:    1c40        @.      ADDS     r0,r0,#1
        0x00000f2e:    7120         q      STRB     r0,[r4,#4]
        0x00000f30:    7960        `y      LDRB     r0,[r4,#5]
        0x00000f32:    2805        .(      CMP      r0,#5
        0x00000f34:    d201        ..      BCS      0xf3a ; BLDCSpeedManager + 82
        0x00000f36:    1c40        @.      ADDS     r0,r0,#1
        0x00000f38:    e000        ..      B        0xf3c ; BLDCSpeedManager + 84
        0x00000f3a:    2000        .       MOVS     r0,#0
        0x00000f3c:    b2c0        ..      UXTB     r0,r0
        0x00000f3e:    7160        `q      STRB     r0,[r4,#5]
        0x00000f40:    8809        ..      LDRH     r1,[r1,#0]
        0x00000f42:    0789        ..      LSLS     r1,r1,#30
        0x00000f44:    d402        ..      BMI      0xf4c ; BLDCSpeedManager + 100
        0x00000f46:    0080        ..      LSLS     r0,r0,#2
        0x00000f48:    499f        .I      LDR      r1,[pc,#636] ; [0x11c8] = 0x1cb0
        0x00000f4a:    e002        ..      B        0xf52 ; BLDCSpeedManager + 106
        0x00000f4c:    499e        .I      LDR      r1,[pc,#632] ; [0x11c8] = 0x1cb0
        0x00000f4e:    0080        ..      LSLS     r0,r0,#2
        0x00000f50:    3118        .1      ADDS     r1,r1,#0x18
        0x00000f52:    5808        .X      LDR      r0,[r1,r0]
        0x00000f54:    499b        .I      LDR      r1,[pc,#620] ; [0x11c4] = 0x40040000
        0x00000f56:    3140        @1      ADDS     r1,r1,#0x40
        0x00000f58:    63c8        .c      STR      r0,[r1,#0x3c]
        0x00000f5a:    bd10        ..      POP      {r4,pc}
    BLDC_LocatingManager
        0x00000f5c:    b5f8        ..      PUSH     {r3-r7,lr}
        0x00000f5e:    489b        .H      LDR      r0,[pc,#620] ; [0x11cc] = 0x20000000
        0x00000f60:    6800        .h      LDR      r0,[r0,#0]
        0x00000f62:    4c96        .L      LDR      r4,[pc,#600] ; [0x11bc] = 0x20000004
        0x00000f64:    4b96        .K      LDR      r3,[pc,#600] ; [0x11c0] = 0x20000290
        0x00000f66:    6961        ai      LDR      r1,[r4,#0x14]
        0x00000f68:    1a40        @.      SUBS     r0,r0,r1
        0x00000f6a:    89d9        ..      LDRH     r1,[r3,#0xe]
        0x00000f6c:    4288        .B      CMP      r0,r1
        0x00000f6e:    d90b        ..      BLS      0xf88 ; BLDC_LocatingManager + 44
        0x00000f70:    78a0        .x      LDRB     r0,[r4,#2]
        0x00000f72:    2804        .(      CMP      r0,#4
        0x00000f74:    d20a        ..      BCS      0xf8c ; BLDC_LocatingManager + 48
        0x00000f76:    4994        .I      LDR      r1,[pc,#592] ; [0x11c8] = 0x1cb0
        0x00000f78:    1f09        ..      SUBS     r1,r1,#4
        0x00000f7a:    5c09        .\      LDRB     r1,[r1,r0]
        0x00000f7c:    88d8        ..      LDRH     r0,[r3,#6]
        0x00000f7e:    f000fe7b    ..{.    BL       setPhaseManually ; 0x1c78
        0x00000f82:    78a0        .x      LDRB     r0,[r4,#2]
        0x00000f84:    1c40        @.      ADDS     r0,r0,#1
        0x00000f86:    70a0        .p      STRB     r0,[r4,#2]
        0x00000f88:    4891        .H      LDR      r0,[pc,#580] ; [0x11d0] = 0xffff
        0x00000f8a:    bdf8        ..      POP      {r3-r7,pc}
        0x00000f8c:    4a91        .J      LDR      r2,[pc,#580] ; [0x11d4] = 0x50004240
        0x00000f8e:    2100        .!      MOVS     r1,#0
        0x00000f90:    6211        .b      STR      r1,[r2,#0x20]
        0x00000f92:    4d8c        .M      LDR      r5,[pc,#560] ; [0x11c4] = 0x40040000
        0x00000f94:    3540        @5      ADDS     r5,r5,#0x40
        0x00000f96:    6169        ia      STR      r1,[r5,#0x14]
        0x00000f98:    498f        .I      LDR      r1,[pc,#572] ; [0x11d8] = 0x40010000
        0x00000f9a:    680a        .h      LDR      r2,[r1,#0]
        0x00000f9c:    038e        ..      LSLS     r6,r1,#14
        0x00000f9e:    43b2        .C      BICS     r2,r2,r6
        0x00000fa0:    600a        .`      STR      r2,[r1,#0]
        0x00000fa2:    4a8d        .J      LDR      r2,[pc,#564] ; [0x11d8] = 0x40010000
        0x00000fa4:    3220         2      ADDS     r2,r2,#0x20
        0x00000fa6:    6817        .h      LDR      r7,[r2,#0]
        0x00000fa8:    43b7        .C      BICS     r7,r7,r6
        0x00000faa:    6017        .`      STR      r7,[r2,#0]
        0x00000fac:    680f        .h      LDR      r7,[r1,#0]
        0x00000fae:    034e        N.      LSLS     r6,r1,#13
        0x00000fb0:    43b7        .C      BICS     r7,r7,r6
        0x00000fb2:    600f        .`      STR      r7,[r1,#0]
        0x00000fb4:    6811        .h      LDR      r1,[r2,#0]
        0x00000fb6:    43b1        .C      BICS     r1,r1,r6
        0x00000fb8:    6011        .`      STR      r1,[r2,#0]
        0x00000fba:    21ff        .!      MOVS     r1,#0xff
        0x00000fbc:    63e9        .c      STR      r1,[r5,#0x3c]
        0x00000fbe:    63a9        .c      STR      r1,[r5,#0x38]
        0x00000fc0:    8859        Y.      LDRH     r1,[r3,#2]
        0x00000fc2:    0849        I.      LSRS     r1,r1,#1
        0x00000fc4:    0049        I.      LSLS     r1,r1,#1
        0x00000fc6:    8059        Y.      STRH     r1,[r3,#2]
        0x00000fc8:    497f        .I      LDR      r1,[pc,#508] ; [0x11c8] = 0x1cb0
        0x00000fca:    1f09        ..      SUBS     r1,r1,#4
        0x00000fcc:    1808        ..      ADDS     r0,r1,r0
        0x00000fce:    3820         8      SUBS     r0,r0,#0x20
        0x00000fd0:    7fc0        ..      LDRB     r0,[r0,#0x1f]
        0x00000fd2:    7160        `q      STRB     r0,[r4,#5]
        0x00000fd4:    2001        .       MOVS     r0,#1
        0x00000fd6:    bdf8        ..      POP      {r3-r7,pc}
    BLDC_SensorLessManager
        0x00000fd8:    b5f8        ..      PUSH     {r3-r7,lr}
        0x00000fda:    4c79        yL      LDR      r4,[pc,#484] ; [0x11c0] = 0x20000290
        0x00000fdc:    89a1        ..      LDRH     r1,[r4,#0xc]
        0x00000fde:    487f        .H      LDR      r0,[pc,#508] ; [0x11dc] = 0x2dd
        0x00000fe0:    4281        .B      CMP      r1,r0
        0x00000fe2:    d803        ..      BHI      0xfec ; BLDC_SensorLessManager + 20
        0x00000fe4:    4977        wI      LDR      r1,[pc,#476] ; [0x11c4] = 0x40040000
        0x00000fe6:    6a89        .j      LDR      r1,[r1,#0x28]
        0x00000fe8:    4281        .B      CMP      r1,r0
        0x00000fea:    d904        ..      BLS      0xff6 ; BLDC_SensorLessManager + 30
        0x00000fec:    f000fd56    ..V.    BL       BLDC_stopMotor ; 0x1a9c
        0x00000ff0:    2006        .       MOVS     r0,#6
        0x00000ff2:    f000fb0e    ....    BL       setError ; 0x1612
        0x00000ff6:    4d71        qM      LDR      r5,[pc,#452] ; [0x11bc] = 0x20000004
        0x00000ff8:    8861        a.      LDRH     r1,[r4,#2]
        0x00000ffa:    6968        hi      LDR      r0,[r5,#0x14]
        0x00000ffc:    4e73        sN      LDR      r6,[pc,#460] ; [0x11cc] = 0x20000000
        0x00000ffe:    07c9        ..      LSLS     r1,r1,#31
        0x00001000:    d013        ..      BEQ      0x102a ; BLDC_SensorLessManager + 82
        0x00001002:    4970        pI      LDR      r1,[pc,#448] ; [0x11c4] = 0x40040000
        0x00001004:    3140        @1      ADDS     r1,r1,#0x40
        0x00001006:    6b8b        .k      LDR      r3,[r1,#0x38]
        0x00001008:    4a75        uJ      LDR      r2,[pc,#468] ; [0x11e0] = 0x2000028c
        0x0000100a:    6817        .h      LDR      r7,[r2,#0]
        0x0000100c:    42bb        .B      CMP      r3,r7
        0x0000100e:    d003        ..      BEQ      0x1018 ; BLDC_SensorLessManager + 64
        0x00001010:    6b88        .k      LDR      r0,[r1,#0x38]
        0x00001012:    6010        .`      STR      r0,[r2,#0]
        0x00001014:    6830        0h      LDR      r0,[r6,#0]
        0x00001016:    e008        ..      B        0x102a ; BLDC_SensorLessManager + 82
        0x00001018:    6831        1h      LDR      r1,[r6,#0]
        0x0000101a:    1a08        ..      SUBS     r0,r1,r0
        0x0000101c:    2850        P(      CMP      r0,#0x50
        0x0000101e:    d904        ..      BLS      0x102a ; BLDC_SensorLessManager + 82
        0x00001020:    f000fd3c    ..<.    BL       BLDC_stopMotor ; 0x1a9c
        0x00001024:    2006        .       MOVS     r0,#6
        0x00001026:    f000faf4    ....    BL       setError ; 0x1612
        0x0000102a:    782a        *x      LDRB     r2,[r5,#0]
        0x0000102c:    486d        mH      LDR      r0,[pc,#436] ; [0x11e4] = 0x20000268
        0x0000102e:    2700        .'      MOVS     r7,#0
        0x00001030:    2101        .!      MOVS     r1,#1
        0x00001032:    0013        ..      MOVS     r3,r2
        0x00001034:    f000fe03    ....    BL       __ARM_common_switch8 ; 0x1c3e
    $d
        0x00001038:    31100507    ...1    DCD    823133447
        0x0000103c:    b8a1813f    ?...    DCD    3097592127
        0x00001040:    000f        ..      DCW    15
    $t
        0x00001042:    8822        ".      LDRH     r2,[r4,#0]
        0x00001044:    07d2        ..      LSLS     r2,r2,#31
        0x00001046:    d006        ..      BEQ      0x1056 ; BLDC_SensorLessManager + 126
        0x00001048:    6800        .h      LDR      r0,[r0,#0]
        0x0000104a:    0840        @.      LSRS     r0,r0,#1
        0x0000104c:    d103        ..      BNE      0x1056 ; BLDC_SensorLessManager + 126
        0x0000104e:    6830        0h      LDR      r0,[r6,#0]
        0x00001050:    61a8        .a      STR      r0,[r5,#0x18]
        0x00001052:    706f        op      STRB     r7,[r5,#1]
        0x00001054:    7029        )p      STRB     r1,[r5,#0]
        0x00001056:    bdf8        ..      POP      {r3-r7,pc}
        0x00001058:    8822        ".      LDRH     r2,[r4,#0]
        0x0000105a:    07d2        ..      LSLS     r2,r2,#31
        0x0000105c:    d01a        ..      BEQ      0x1094 ; BLDC_SensorLessManager + 188
        0x0000105e:    6800        .h      LDR      r0,[r0,#0]
        0x00001060:    0840        @.      LSRS     r0,r0,#1
        0x00001062:    d117        ..      BNE      0x1094 ; BLDC_SensorLessManager + 188
        0x00001064:    716f        oq      STRB     r7,[r5,#5]
        0x00001066:    70af        .p      STRB     r7,[r5,#2]
        0x00001068:    8860        `.      LDRH     r0,[r4,#2]
        0x0000106a:    22ff        ."      MOVS     r2,#0xff
        0x0000106c:    0152        R.      LSLS     r2,r2,#5
        0x0000106e:    4390        .C      BICS     r0,r0,r2
        0x00001070:    8060        `.      STRH     r0,[r4,#2]
        0x00001072:    6830        0h      LDR      r0,[r6,#0]
        0x00001074:    6168        ha      STR      r0,[r5,#0x14]
        0x00001076:    8860        `.      LDRH     r0,[r4,#2]
        0x00001078:    4308        .C      ORRS     r0,r0,r1
        0x0000107a:    8060        `.      STRH     r0,[r4,#2]
        0x0000107c:    8860        `.      LDRH     r0,[r4,#2]
        0x0000107e:    2302        .#      MOVS     r3,#2
        0x00001080:    4398        .C      BICS     r0,r0,r3
        0x00001082:    8060        `.      STRH     r0,[r4,#2]
        0x00001084:    8862        b.      LDRH     r2,[r4,#2]
        0x00001086:    2004        .       MOVS     r0,#4
        0x00001088:    4382        .C      BICS     r2,r2,r0
        0x0000108a:    8062        b.      STRH     r2,[r4,#2]
        0x0000108c:    4851        QH      LDR      r0,[pc,#324] ; [0x11d4] = 0x50004240
        0x0000108e:    6201        .b      STR      r1,[r0,#0x20]
        0x00001090:    702b        +p      STRB     r3,[r5,#0]
        0x00001092:    bdf8        ..      POP      {r3-r7,pc}
        0x00001094:    f000fd02    ....    BL       BLDC_stopMotor ; 0x1a9c
        0x00001098:    bdf8        ..      POP      {r3-r7,pc}
        0x0000109a:    8821        !.      LDRH     r1,[r4,#0]
        0x0000109c:    07c9        ..      LSLS     r1,r1,#31
        0x0000109e:    d0f9        ..      BEQ      0x1094 ; BLDC_SensorLessManager + 188
        0x000010a0:    6800        .h      LDR      r0,[r0,#0]
        0x000010a2:    0840        @.      LSRS     r0,r0,#1
        0x000010a4:    d1f6        ..      BNE      0x1094 ; BLDC_SensorLessManager + 188
        0x000010a6:    f7ffff59    ..Y.    BL       BLDC_LocatingManager ; 0xf5c
        0x000010aa:    2801        .(      CMP      r0,#1
        0x000010ac:    d1f4        ..      BNE      0x1098 ; BLDC_SensorLessManager + 192
        0x000010ae:    6830        0h      LDR      r0,[r6,#0]
        0x000010b0:    6128        (a      STR      r0,[r5,#0x10]
        0x000010b2:    2003        .       MOVS     r0,#3
        0x000010b4:    e03f        ?.      B        0x1136 ; BLDC_SensorLessManager + 350
        0x000010b6:    8822        ".      LDRH     r2,[r4,#0]
        0x000010b8:    07d2        ..      LSLS     r2,r2,#31
        0x000010ba:    d0eb        ..      BEQ      0x1094 ; BLDC_SensorLessManager + 188
        0x000010bc:    6800        .h      LDR      r0,[r0,#0]
        0x000010be:    0840        @.      LSRS     r0,r0,#1
        0x000010c0:    d1e8        ..      BNE      0x1094 ; BLDC_SensorLessManager + 188
        0x000010c2:    6830        0h      LDR      r0,[r6,#0]
        0x000010c4:    8920         .      LDRH     r0,[r4,#8]
        0x000010c6:    81a0        ..      STRH     r0,[r4,#0xc]
        0x000010c8:    6960        `i      LDR      r0,[r4,#0x14]
        0x000010ca:    61a0        .a      STR      r0,[r4,#0x18]
        0x000010cc:    8860        `.      LDRH     r0,[r4,#2]
        0x000010ce:    460e        .F      MOV      r6,r1
        0x000010d0:    4330        0C      ORRS     r0,r0,r6
        0x000010d2:    8060        `.      STRH     r0,[r4,#2]
        0x000010d4:    7968        hy      LDRB     r0,[r5,#5]
        0x000010d6:    2805        .(      CMP      r0,#5
        0x000010d8:    d201        ..      BCS      0x10de ; BLDC_SensorLessManager + 262
        0x000010da:    1c40        @.      ADDS     r0,r0,#1
        0x000010dc:    e000        ..      B        0x10e0 ; BLDC_SensorLessManager + 264
        0x000010de:    2000        .       MOVS     r0,#0
        0x000010e0:    b2c1        ..      UXTB     r1,r0
        0x000010e2:    7169        iq      STRB     r1,[r5,#5]
        0x000010e4:    89a0        ..      LDRH     r0,[r4,#0xc]
        0x000010e6:    f000fdc7    ....    BL       setPhaseManually ; 0x1c78
        0x000010ea:    483a        :H      LDR      r0,[pc,#232] ; [0x11d4] = 0x50004240
        0x000010ec:    6206        .b      STR      r6,[r0,#0x20]
        0x000010ee:    7968        hy      LDRB     r0,[r5,#5]
        0x000010f0:    2805        .(      CMP      r0,#5
        0x000010f2:    d201        ..      BCS      0x10f8 ; BLDC_SensorLessManager + 288
        0x000010f4:    1c40        @.      ADDS     r0,r0,#1
        0x000010f6:    e000        ..      B        0x10fa ; BLDC_SensorLessManager + 290
        0x000010f8:    2000        .       MOVS     r0,#0
        0x000010fa:    b2c0        ..      UXTB     r0,r0
        0x000010fc:    7168        hq      STRB     r0,[r5,#5]
        0x000010fe:    8821        !.      LDRH     r1,[r4,#0]
        0x00001100:    0789        ..      LSLS     r1,r1,#30
        0x00001102:    d402        ..      BMI      0x110a ; BLDC_SensorLessManager + 306
        0x00001104:    0080        ..      LSLS     r0,r0,#2
        0x00001106:    4930        0I      LDR      r1,[pc,#192] ; [0x11c8] = 0x1cb0
        0x00001108:    e002        ..      B        0x1110 ; BLDC_SensorLessManager + 312
        0x0000110a:    492f        /I      LDR      r1,[pc,#188] ; [0x11c8] = 0x1cb0
        0x0000110c:    0080        ..      LSLS     r0,r0,#2
        0x0000110e:    3118        .1      ADDS     r1,r1,#0x18
        0x00001110:    5808        .X      LDR      r0,[r1,r0]
        0x00001112:    492c        ,I      LDR      r1,[pc,#176] ; [0x11c4] = 0x40040000
        0x00001114:    3140        @1      ADDS     r1,r1,#0x40
        0x00001116:    63c8        .c      STR      r0,[r1,#0x3c]
        0x00001118:    69a1        .i      LDR      r1,[r4,#0x18]
        0x0000111a:    482f        /H      LDR      r0,[pc,#188] ; [0x11d8] = 0x40010000
        0x0000111c:    6041        A`      STR      r1,[r0,#4]
        0x0000111e:    6801        .h      LDR      r1,[r0,#0]
        0x00001120:    0382        ..      LSLS     r2,r0,#14
        0x00001122:    4311        .C      ORRS     r1,r1,r2
        0x00001124:    6001        .`      STR      r1,[r0,#0]
        0x00001126:    6801        .h      LDR      r1,[r0,#0]
        0x00001128:    0342        B.      LSLS     r2,r0,#13
        0x0000112a:    4311        .C      ORRS     r1,r1,r2
        0x0000112c:    6001        .`      STR      r1,[r0,#0]
        0x0000112e:    812f        /.      STRH     r7,[r5,#8]
        0x00001130:    712f        /q      STRB     r7,[r5,#4]
        0x00001132:    70ef        .p      STRB     r7,[r5,#3]
        0x00001134:    2004        .       MOVS     r0,#4
        0x00001136:    7028        (p      STRB     r0,[r5,#0]
        0x00001138:    bdf8        ..      POP      {r3-r7,pc}
        0x0000113a:    8821        !.      LDRH     r1,[r4,#0]
        0x0000113c:    07c9        ..      LSLS     r1,r1,#31
        0x0000113e:    d0a9        ..      BEQ      0x1094 ; BLDC_SensorLessManager + 188
        0x00001140:    6800        .h      LDR      r0,[r0,#0]
        0x00001142:    0840        @.      LSRS     r0,r0,#1
        0x00001144:    d1a6        ..      BNE      0x1094 ; BLDC_SensorLessManager + 188
        0x00001146:    f000fc5b    ..[.    BL       BLDCRampUp_Manager ; 0x1a00
        0x0000114a:    69a0        .i      LDR      r0,[r4,#0x18]
        0x0000114c:    4926        &I      LDR      r1,[pc,#152] ; [0x11e8] = 0x63f
        0x0000114e:    4288        .B      CMP      r0,r1
        0x00001150:    d8f2        ..      BHI      0x1138 ; BLDC_SensorLessManager + 352
        0x00001152:    8860        `.      LDRH     r0,[r4,#2]
        0x00001154:    2108        .!      MOVS     r1,#8
        0x00001156:    4388        .C      BICS     r0,r0,r1
        0x00001158:    8060        `.      STRH     r0,[r4,#2]
        0x0000115a:    8860        `.      LDRH     r0,[r4,#2]
        0x0000115c:    2102        .!      MOVS     r1,#2
        0x0000115e:    4308        .C      ORRS     r0,r0,r1
        0x00001160:    8060        `.      STRH     r0,[r4,#2]
        0x00001162:    4922        "I      LDR      r1,[pc,#136] ; [0x11ec] = 0x400d0000
        0x00001164:    680a        .h      LDR      r2,[r1,#0]
        0x00001166:    2005        .       MOVS     r0,#5
        0x00001168:    4302        .C      ORRS     r2,r2,r0
        0x0000116a:    600a        .`      STR      r2,[r1,#0]
        0x0000116c:    491a        .I      LDR      r1,[pc,#104] ; [0x11d8] = 0x40010000
        0x0000116e:    3120         1      ADDS     r1,r1,#0x20
        0x00001170:    680a        .h      LDR      r2,[r1,#0]
        0x00001172:    0783        ..      LSLS     r3,r0,#30
        0x00001174:    431a        .C      ORRS     r2,r2,r3
        0x00001176:    600a        .`      STR      r2,[r1,#0]
        0x00001178:    e7dd        ..      B        0x1136 ; BLDC_SensorLessManager + 350
        0x0000117a:    8821        !.      LDRH     r1,[r4,#0]
        0x0000117c:    07c9        ..      LSLS     r1,r1,#31
        0x0000117e:    d089        ..      BEQ      0x1094 ; BLDC_SensorLessManager + 188
        0x00001180:    6800        .h      LDR      r0,[r0,#0]
        0x00001182:    0840        @.      LSRS     r0,r0,#1
        0x00001184:    d186        ..      BNE      0x1094 ; BLDC_SensorLessManager + 188
        0x00001186:    8860        `.      LDRH     r0,[r4,#2]
        0x00001188:    0740        @.      LSLS     r0,r0,#29
        0x0000118a:    d501        ..      BPL      0x1190 ; BLDC_SensorLessManager + 440
        0x0000118c:    2006        .       MOVS     r0,#6
        0x0000118e:    e7d2        ..      B        0x1136 ; BLDC_SensorLessManager + 350
        0x00001190:    8928        (.      LDRH     r0,[r5,#8]
        0x00001192:    21ff        .!      MOVS     r1,#0xff
        0x00001194:    312d        -1      ADDS     r1,r1,#0x2d
        0x00001196:    4288        .B      CMP      r0,r1
        0x00001198:    d202        ..      BCS      0x11a0 ; BLDC_SensorLessManager + 456
        0x0000119a:    f000fc31    ..1.    BL       BLDCRampUp_Manager ; 0x1a00
        0x0000119e:    bdf8        ..      POP      {r3-r7,pc}
        0x000011a0:    2004        .       MOVS     r0,#4
        0x000011a2:    f000fa36    ..6.    BL       setError ; 0x1612
        0x000011a6:    bdf8        ..      POP      {r3-r7,pc}
        0x000011a8:    8821        !.      LDRH     r1,[r4,#0]
        0x000011aa:    07c9        ..      LSLS     r1,r1,#31
        0x000011ac:    d085        ..      BEQ      0x10ba ; BLDC_SensorLessManager + 226
        0x000011ae:    6800        .h      LDR      r0,[r0,#0]
        0x000011b0:    0840        @.      LSRS     r0,r0,#1
        0x000011b2:    d185        ..      BNE      0x10c0 ; BLDC_SensorLessManager + 232
        0x000011b4:    f7fffe98    ....    BL       BLDCSpeedManager ; 0xee8
        0x000011b8:    bdf8        ..      POP      {r3-r7,pc}
    $d
        0x000011ba:    0000        ..      DCW    0
        0x000011bc:    20000004    ...     DCD    536870916
        0x000011c0:    20000290    ...     DCD    536871568
        0x000011c4:    40040000    ...@    DCD    1074003968
        0x000011c8:    00001cb0    ....    DCD    7344
        0x000011cc:    20000000    ...     DCD    536870912
        0x000011d0:    0000ffff    ....    DCD    65535
        0x000011d4:    50004240    @B.P    DCD    1342194240
        0x000011d8:    40010000    ...@    DCD    1073807360
        0x000011dc:    000002dd    ....    DCD    733
        0x000011e0:    2000028c    ...     DCD    536871564
        0x000011e4:    20000268    h..     DCD    536871528
        0x000011e8:    0000063f    ?...    DCD    1599
        0x000011ec:    400d0000    ...@    DCD    1074593792
    $t
    .text
    calCRC16
        0x000011f0:    b570        p.      PUSH     {r4-r6,lr}
        0x000011f2:    4605        .F      MOV      r5,r0
        0x000011f4:    2000        .       MOVS     r0,#0
        0x000011f6:    4602        .F      MOV      r2,r0
        0x000011f8:    4e35        5N      LDR      r6,[pc,#212] ; [0x12d0] = 0x20000040
        0x000011fa:    e00b        ..      B        0x1214 ; calCRC16 + 36
        0x000011fc:    0a04        ..      LSRS     r4,r0,#8
        0x000011fe:    07d3        ..      LSLS     r3,r2,#31
        0x00001200:    d00b        ..      BEQ      0x121a ; calCRC16 + 42
        0x00001202:    1e53        S.      SUBS     r3,r2,#1
        0x00001204:    5ceb        .\      LDRB     r3,[r5,r3]
        0x00001206:    0200        ..      LSLS     r0,r0,#8
        0x00001208:    405c        \@      EORS     r4,r4,r3
        0x0000120a:    0063        c.      LSLS     r3,r4,#1
        0x0000120c:    5af3        .Z      LDRH     r3,[r6,r3]
        0x0000120e:    4058        X@      EORS     r0,r0,r3
        0x00001210:    b280        ..      UXTH     r0,r0
        0x00001212:    1c52        R.      ADDS     r2,r2,#1
        0x00001214:    428a        .B      CMP      r2,r1
        0x00001216:    d3f1        ..      BCC      0x11fc ; calCRC16 + 12
        0x00001218:    bd70        p.      POP      {r4-r6,pc}
        0x0000121a:    1c53        S.      ADDS     r3,r2,#1
        0x0000121c:    e7f2        ..      B        0x1204 ; calCRC16 + 20
    nReadCommandHandler
        0x0000121e:    b530        0.      PUSH     {r4,r5,lr}
        0x00001220:    4604        .F      MOV      r4,r0
        0x00001222:    8800        ..      LDRH     r0,[r0,#0]
        0x00001224:    0441        A.      LSLS     r1,r0,#17
        0x00001226:    0c49        I.      LSRS     r1,r1,#17
        0x00001228:    2912        .)      CMP      r1,#0x12
        0x0000122a:    d20f        ..      BCS      0x124c ; nReadCommandHandler + 46
        0x0000122c:    0048        H.      LSLS     r0,r1,#1
        0x0000122e:    4d29        )M      LDR      r5,[pc,#164] ; [0x12d4] = 0x20000290
        0x00001230:    2102        .!      MOVS     r1,#2
        0x00001232:    1940        @.      ADDS     r0,r0,r5
        0x00001234:    f7ffffdc    ....    BL       calCRC16 ; 0x11f0
        0x00001238:    8821        !.      LDRH     r1,[r4,#0]
        0x0000123a:    0400        ..      LSLS     r0,r0,#16
        0x0000123c:    0449        I.      LSLS     r1,r1,#17
        0x0000123e:    0c09        ..      LSRS     r1,r1,#16
        0x00001240:    5a69        iZ      LDRH     r1,[r5,r1]
        0x00001242:    1840        @.      ADDS     r0,r0,r1
        0x00001244:    4924        $I      LDR      r1,[pc,#144] ; [0x12d8] = 0x40030000
        0x00001246:    6208        .b      STR      r0,[r1,#0x20]
        0x00001248:    2000        .       MOVS     r0,#0
        0x0000124a:    bd30        0.      POP      {r4,r5,pc}
        0x0000124c:    2000        .       MOVS     r0,#0
        0x0000124e:    43c0        .C      MVNS     r0,r0
        0x00001250:    bd30        0.      POP      {r4,r5,pc}
    nWriteCommandHandler
        0x00001252:    b500        ..      PUSH     {lr}
        0x00001254:    8801        ..      LDRH     r1,[r0,#0]
        0x00001256:    044a        J.      LSLS     r2,r1,#17
        0x00001258:    0c52        R.      LSRS     r2,r2,#17
        0x0000125a:    491e        .I      LDR      r1,[pc,#120] ; [0x12d4] = 0x20000290
        0x0000125c:    0013        ..      MOVS     r3,r2
        0x0000125e:    f000fcee    ....    BL       __ARM_common_switch8 ; 0x1c3e
    $d
        0x00001262:    2108        .!      DCW    8456
        0x00001264:    110e0505    ....    DCD    286131461
        0x00001268:    211a1714    ...!    DCD    555357972
    $t
        0x0000126c:    880a        ..      LDRH     r2,[r1,#0]
        0x0000126e:    7880        .x      LDRB     r0,[r0,#2]
        0x00001270:    0852        R.      LSRS     r2,r2,#1
        0x00001272:    0052        R.      LSLS     r2,r2,#1
        0x00001274:    07c0        ..      LSLS     r0,r0,#31
        0x00001276:    0fc0        ..      LSRS     r0,r0,#31
        0x00001278:    4302        .C      ORRS     r2,r2,r0
        0x0000127a:    800a        ..      STRH     r2,[r1,#0]
        0x0000127c:    e010        ..      B        0x12a0 ; nWriteCommandHandler + 78
        0x0000127e:    8840        @.      LDRH     r0,[r0,#2]
        0x00001280:    80c8        ..      STRH     r0,[r1,#6]
        0x00001282:    e00d        ..      B        0x12a0 ; nWriteCommandHandler + 78
        0x00001284:    8840        @.      LDRH     r0,[r0,#2]
        0x00001286:    8108        ..      STRH     r0,[r1,#8]
        0x00001288:    e00a        ..      B        0x12a0 ; nWriteCommandHandler + 78
        0x0000128a:    8840        @.      LDRH     r0,[r0,#2]
        0x0000128c:    8148        H.      STRH     r0,[r1,#0xa]
        0x0000128e:    e007        ..      B        0x12a0 ; nWriteCommandHandler + 78
        0x00001290:    8840        @.      LDRH     r0,[r0,#2]
        0x00001292:    81c8        ..      STRH     r0,[r1,#0xe]
        0x00001294:    e004        ..      B        0x12a0 ; nWriteCommandHandler + 78
        0x00001296:    8842        B.      LDRH     r2,[r0,#2]
        0x00001298:    8880        ..      LDRH     r0,[r0,#4]
        0x0000129a:    0400        ..      LSLS     r0,r0,#16
        0x0000129c:    1810        ..      ADDS     r0,r2,r0
        0x0000129e:    6148        Ha      STR      r0,[r1,#0x14]
        0x000012a0:    2000        .       MOVS     r0,#0
        0x000012a2:    bd00        ..      POP      {pc}
        0x000012a4:    2000        .       MOVS     r0,#0
        0x000012a6:    43c0        .C      MVNS     r0,r0
        0x000012a8:    bd00        ..      POP      {pc}
    COMM_Manager
        0x000012aa:    490a        .I      LDR      r1,[pc,#40] ; [0x12d4] = 0x20000290
        0x000012ac:    8848        H.      LDRH     r0,[r1,#2]
        0x000012ae:    06c0        ..      LSLS     r0,r0,#27
        0x000012b0:    d50c        ..      BPL      0x12cc ; COMM_Manager + 34
        0x000012b2:    4807        .H      LDR      r0,[pc,#28] ; [0x12d0] = 0x20000040
        0x000012b4:    3814        .8      SUBS     r0,r0,#0x14
        0x000012b6:    8982        ..      LDRH     r2,[r0,#0xc]
        0x000012b8:    8082        ..      STRH     r2,[r0,#4]
        0x000012ba:    89c2        ..      LDRH     r2,[r0,#0xe]
        0x000012bc:    80c2        ..      STRH     r2,[r0,#6]
        0x000012be:    884a        J.      LDRH     r2,[r1,#2]
        0x000012c0:    2310        .#      MOVS     r3,#0x10
        0x000012c2:    439a        .C      BICS     r2,r2,r3
        0x000012c4:    804a        J.      STRH     r2,[r1,#2]
        0x000012c6:    6801        .h      LDR      r1,[r0,#0]
        0x000012c8:    1c49        I.      ADDS     r1,r1,#1
        0x000012ca:    6001        .`      STR      r1,[r0,#0]
        0x000012cc:    4770        pG      BX       lr
    $d
        0x000012ce:    0000        ..      DCW    0
        0x000012d0:    20000040    @..     DCD    536870976
        0x000012d4:    20000290    ...     DCD    536871568
        0x000012d8:    40030000    ...@    DCD    1073938432
    $t
    .text
    TMR0_IRQHandler
        0x000012dc:    b510        ..      PUSH     {r4,lr}
        0x000012de:    49b0        .I      LDR      r1,[pc,#704] ; [0x15a0] = 0x40010000
        0x000012e0:    6888        .h      LDR      r0,[r1,#8]
        0x000012e2:    6088        .`      STR      r0,[r1,#8]
        0x000012e4:    4aaf        .J      LDR      r2,[pc,#700] ; [0x15a4] = 0x2000000a
        0x000012e6:    2001        .       MOVS     r0,#1
        0x000012e8:    7010        .p      STRB     r0,[r2,#0]
        0x000012ea:    48af        .H      LDR      r0,[pc,#700] ; [0x15a8] = 0x20000290
        0x000012ec:    8840        @.      LDRH     r0,[r0,#2]
        0x000012ee:    0780        ..      LSLS     r0,r0,#30
        0x000012f0:    d519        ..      BPL      0x1326 ; TMR0_IRQHandler + 74
        0x000012f2:    4aab        .J      LDR      r2,[pc,#684] ; [0x15a0] = 0x40010000
        0x000012f4:    3220         2      ADDS     r2,r2,#0x20
        0x000012f6:    6810        .h      LDR      r0,[r2,#0]
        0x000012f8:    034b        K.      LSLS     r3,r1,#13
        0x000012fa:    4398        .C      BICS     r0,r0,r3
        0x000012fc:    6010        .`      STR      r0,[r2,#0]
        0x000012fe:    2000        .       MOVS     r0,#0
        0x00001300:    43c0        .C      MVNS     r0,r0
        0x00001302:    6288        .b      STR      r0,[r1,#0x28]
        0x00001304:    6ac8        .j      LDR      r0,[r1,#0x2c]
        0x00001306:    4ca9        .L      LDR      r4,[pc,#676] ; [0x15ac] = 0xffffff
        0x00001308:    30a0        .0      ADDS     r0,r0,#0xa0
        0x0000130a:    42a0        .B      CMP      r0,r4
        0x0000130c:    6ac8        .j      LDR      r0,[r1,#0x2c]
        0x0000130e:    d302        ..      BCC      0x1316 ; TMR0_IRQHandler + 58
        0x00001310:    4ca7        .L      LDR      r4,[pc,#668] ; [0x15b0] = 0xff0000a1
        0x00001312:    1900        ..      ADDS     r0,r0,r4
        0x00001314:    e000        ..      B        0x1318 ; TMR0_IRQHandler + 60
        0x00001316:    30a0        .0      ADDS     r0,r0,#0xa0
        0x00001318:    6248        Hb      STR      r0,[r1,#0x24]
        0x0000131a:    49a6        .I      LDR      r1,[pc,#664] ; [0x15b4] = 0x20000024
        0x0000131c:    2000        .       MOVS     r0,#0
        0x0000131e:    7008        .p      STRB     r0,[r1,#0]
        0x00001320:    6810        .h      LDR      r0,[r2,#0]
        0x00001322:    4318        .C      ORRS     r0,r0,r3
        0x00001324:    6010        .`      STR      r0,[r2,#0]
        0x00001326:    bd10        ..      POP      {r4,pc}
    PhaseZXDedHandler
        0x00001328:    b530        0.      PUSH     {r4,r5,lr}
        0x0000132a:    4aa3        .J      LDR      r2,[pc,#652] ; [0x15b8] = 0x20000020
        0x0000132c:    6811        .h      LDR      r1,[r2,#0]
        0x0000132e:    4288        .B      CMP      r0,r1
        0x00001330:    d902        ..      BLS      0x1338 ; PhaseZXDedHandler + 16
        0x00001332:    6811        .h      LDR      r1,[r2,#0]
        0x00001334:    1a41        A.      SUBS     r1,r0,r1
        0x00001336:    e003        ..      B        0x1340 ; PhaseZXDedHandler + 24
        0x00001338:    6813        .h      LDR      r3,[r2,#0]
        0x0000133a:    499c        .I      LDR      r1,[pc,#624] ; [0x15ac] = 0xffffff
        0x0000133c:    1ac9        ..      SUBS     r1,r1,r3
        0x0000133e:    1809        ..      ADDS     r1,r1,r0
        0x00001340:    460c        .F      MOV      r4,r1
        0x00001342:    4b9e        .K      LDR      r3,[pc,#632] ; [0x15bc] = 0x20000248
        0x00001344:    3cff        .<      SUBS     r4,r4,#0xff
        0x00001346:    4d9e        .M      LDR      r5,[pc,#632] ; [0x15c0] = 0x251b
        0x00001348:    3cf6        .<      SUBS     r4,r4,#0xf6
        0x0000134a:    6059        Y`      STR      r1,[r3,#4]
        0x0000134c:    42ac        .B      CMP      r4,r5
        0x0000134e:    d221        !.      BCS      0x1394 ; PhaseZXDedHandler + 108
        0x00001350:    6010        .`      STR      r0,[r2,#0]
        0x00001352:    4895        .H      LDR      r0,[pc,#596] ; [0x15a8] = 0x20000290
        0x00001354:    8842        B.      LDRH     r2,[r0,#2]
        0x00001356:    2408        .$      MOVS     r4,#8
        0x00001358:    4322        "C      ORRS     r2,r2,r4
        0x0000135a:    8042        B.      STRH     r2,[r0,#2]
        0x0000135c:    8842        B.      LDRH     r2,[r0,#2]
        0x0000135e:    0752        R.      LSLS     r2,r2,#29
        0x00001360:    d516        ..      BPL      0x1390 ; PhaseZXDedHandler + 104
        0x00001362:    6982        .i      LDR      r2,[r0,#0x18]
        0x00001364:    1851        Q.      ADDS     r1,r2,r1
        0x00001366:    0849        I.      LSRS     r1,r1,#1
        0x00001368:    6181        .a      STR      r1,[r0,#0x18]
        0x0000136a:    6980        .i      LDR      r0,[r0,#0x18]
        0x0000136c:    4a8c        .J      LDR      r2,[pc,#560] ; [0x15a0] = 0x40010000
        0x0000136e:    0840        @.      LSRS     r0,r0,#1
        0x00001370:    6098        .`      STR      r0,[r3,#8]
        0x00001372:    68d3        .h      LDR      r3,[r2,#0xc]
        0x00001374:    21ff        .!      MOVS     r1,#0xff
        0x00001376:    3105        .1      ADDS     r1,#5
        0x00001378:    4288        .B      CMP      r0,r1
        0x0000137a:    d901        ..      BLS      0x1380 ; PhaseZXDedHandler + 88
        0x0000137c:    2101        .!      MOVS     r1,#1
        0x0000137e:    e000        ..      B        0x1382 ; PhaseZXDedHandler + 90
        0x00001380:    2100        .!      MOVS     r1,#0
        0x00001382:    42cb        .B      CMN      r3,r1
        0x00001384:    d002        ..      BEQ      0x138c ; PhaseZXDedHandler + 100
        0x00001386:    38ff        .8      SUBS     r0,r0,#0xff
        0x00001388:    3805        .8      SUBS     r0,#5
        0x0000138a:    e000        ..      B        0x138e ; PhaseZXDedHandler + 102
        0x0000138c:    2032        2       MOVS     r0,#0x32
        0x0000138e:    6050        P`      STR      r0,[r2,#4]
        0x00001390:    2001        .       MOVS     r0,#1
        0x00001392:    bd30        0.      POP      {r4,r5,pc}
        0x00001394:    2000        .       MOVS     r0,#0
        0x00001396:    bd30        0.      POP      {r4,r5,pc}
    TMR1_IRQHandler
        0x00001398:    b5f0        ..      PUSH     {r4-r7,lr}
        0x0000139a:    2000        .       MOVS     r0,#0
        0x0000139c:    4980        .I      LDR      r1,[pc,#512] ; [0x15a0] = 0x40010000
        0x0000139e:    43c0        .C      MVNS     r0,r0
        0x000013a0:    6288        .b      STR      r0,[r1,#0x28]
        0x000013a2:    4884        .H      LDR      r0,[pc,#528] ; [0x15b4] = 0x20000024
        0x000013a4:    7801        .x      LDRB     r1,[r0,#0]
        0x000013a6:    4d7e        ~M      LDR      r5,[pc,#504] ; [0x15a0] = 0x40010000
        0x000013a8:    2701        .'      MOVS     r7,#1
        0x000013aa:    077f        ..      LSLS     r7,r7,#29
        0x000013ac:    2602        .&      MOVS     r6,#2
        0x000013ae:    4c85        .L      LDR      r4,[pc,#532] ; [0x15c4] = 0x400d0000
        0x000013b0:    3520         5      ADDS     r5,r5,#0x20
        0x000013b2:    2900        .)      CMP      r1,#0
        0x000013b4:    d014        ..      BEQ      0x13e0 ; TMR1_IRQHandler + 72
        0x000013b6:    4884        .H      LDR      r0,[pc,#528] ; [0x15c8] = 0x40040040
        0x000013b8:    6b80        .k      LDR      r0,[r0,#0x38]
        0x000013ba:    68a1        .h      LDR      r1,[r4,#8]
        0x000013bc:    0600        ..      LSLS     r0,r0,#24
        0x000013be:    0fc0        ..      LSRS     r0,r0,#31
        0x000013c0:    0749        I.      LSLS     r1,r1,#29
        0x000013c2:    0fc9        ..      LSRS     r1,r1,#31
        0x000013c4:    4288        .B      CMP      r0,r1
        0x000013c6:    d10a        ..      BNE      0x13de ; TMR1_IRQHandler + 70
        0x000013c8:    68e8        .h      LDR      r0,[r5,#0xc]
        0x000013ca:    f7ffffad    ....    BL       PhaseZXDedHandler ; 0x1328
        0x000013ce:    2801        .(      CMP      r0,#1
        0x000013d0:    d105        ..      BNE      0x13de ; TMR1_IRQHandler + 70
        0x000013d2:    6820         h      LDR      r0,[r4,#0]
        0x000013d4:    43b0        .C      BICS     r0,r0,r6
        0x000013d6:    6020         `      STR      r0,[r4,#0]
        0x000013d8:    6828        (h      LDR      r0,[r5,#0]
        0x000013da:    43b8        .C      BICS     r0,r0,r7
        0x000013dc:    6028        (`      STR      r0,[r5,#0]
        0x000013de:    bdf0        ..      POP      {r4-r7,pc}
        0x000013e0:    6829        )h      LDR      r1,[r5,#0]
        0x000013e2:    43b9        .C      BICS     r1,r1,r7
        0x000013e4:    6029        )`      STR      r1,[r5,#0]
        0x000013e6:    2101        .!      MOVS     r1,#1
        0x000013e8:    7001        .p      STRB     r1,[r0,#0]
        0x000013ea:    68a0        .h      LDR      r0,[r4,#8]
        0x000013ec:    4308        .C      ORRS     r0,r0,r1
        0x000013ee:    60a0        .`      STR      r0,[r4,#8]
        0x000013f0:    6820         h      LDR      r0,[r4,#0]
        0x000013f2:    4330        0C      ORRS     r0,r0,r6
        0x000013f4:    6020         `      STR      r0,[r4,#0]
        0x000013f6:    bdf0        ..      POP      {r4-r7,pc}
    ACMP_IRQHandler
        0x000013f8:    4872        rH      LDR      r0,[pc,#456] ; [0x15c4] = 0x400d0000
        0x000013fa:    6881        .h      LDR      r1,[r0,#8]
        0x000013fc:    2201        ."      MOVS     r2,#1
        0x000013fe:    4311        .C      ORRS     r1,r1,r2
        0x00001400:    6081        .`      STR      r1,[r0,#8]
        0x00001402:    486c        lH      LDR      r0,[pc,#432] ; [0x15b4] = 0x20000024
        0x00001404:    7800        .x      LDRB     r0,[r0,#0]
        0x00001406:    2801        .(      CMP      r0,#1
        0x00001408:    d112        ..      BNE      0x1430 ; ACMP_IRQHandler + 56
        0x0000140a:    4965        eI      LDR      r1,[pc,#404] ; [0x15a0] = 0x40010000
        0x0000140c:    6ac8        .j      LDR      r0,[r1,#0x2c]
        0x0000140e:    4a67        gJ      LDR      r2,[pc,#412] ; [0x15ac] = 0xffffff
        0x00001410:    30c8        .0      ADDS     r0,r0,#0xc8
        0x00001412:    4290        .B      CMP      r0,r2
        0x00001414:    6ac8        .j      LDR      r0,[r1,#0x2c]
        0x00001416:    d303        ..      BCC      0x1420 ; ACMP_IRQHandler + 40
        0x00001418:    4a65        eJ      LDR      r2,[pc,#404] ; [0x15b0] = 0xff0000a1
        0x0000141a:    3228        (2      ADDS     r2,r2,#0x28
        0x0000141c:    1880        ..      ADDS     r0,r0,r2
        0x0000141e:    e000        ..      B        0x1422 ; ACMP_IRQHandler + 42
        0x00001420:    30c8        .0      ADDS     r0,r0,#0xc8
        0x00001422:    6248        Hb      STR      r0,[r1,#0x24]
        0x00001424:    485e        ^H      LDR      r0,[pc,#376] ; [0x15a0] = 0x40010000
        0x00001426:    3020         0      ADDS     r0,r0,#0x20
        0x00001428:    6801        .h      LDR      r1,[r0,#0]
        0x0000142a:    0602        ..      LSLS     r2,r0,#24
        0x0000142c:    4311        .C      ORRS     r1,r1,r2
        0x0000142e:    6001        .`      STR      r1,[r0,#0]
        0x00001430:    4770        pG      BX       lr
    ADC_IRQHandler
        0x00001432:    b5f8        ..      PUSH     {r3-r7,lr}
        0x00001434:    4e65        eN      LDR      r6,[pc,#404] ; [0x15cc] = 0x400e0000
        0x00001436:    6b30        0k      LDR      r0,[r6,#0x30]
        0x00001438:    4c60        `L      LDR      r4,[pc,#384] ; [0x15bc] = 0x20000248
        0x0000143a:    0740        @.      LSLS     r0,r0,#29
        0x0000143c:    0f40        @.      LSRS     r0,r0,#29
        0x0000143e:    60e0        .`      STR      r0,[r4,#0xc]
        0x00001440:    07c1        ..      LSLS     r1,r0,#31
        0x00001442:    d01d        ..      BEQ      0x1480 ; ADC_IRQHandler + 78
        0x00001444:    6a71        qj      LDR      r1,[r6,#0x24]
        0x00001446:    07ca        ..      LSLS     r2,r1,#31
        0x00001448:    4957        WI      LDR      r1,[pc,#348] ; [0x15a8] = 0x20000290
        0x0000144a:    d008        ..      BEQ      0x145e ; ADC_IRQHandler + 44
        0x0000144c:    6832        2h      LDR      r2,[r6,#0]
        0x0000144e:    0592        ..      LSLS     r2,r2,#22
        0x00001450:    0d92        ..      LSRS     r2,r2,#22
        0x00001452:    848a        ..      STRH     r2,[r1,#0x24]
        0x00001454:    6a71        qj      LDR      r1,[r6,#0x24]
        0x00001456:    0a09        ..      LSRS     r1,r1,#8
        0x00001458:    0209        ..      LSLS     r1,r1,#8
        0x0000145a:    3180        .1      ADDS     r1,r1,#0x80
        0x0000145c:    e00a        ..      B        0x1474 ; ADC_IRQHandler + 66
        0x0000145e:    6a72        rj      LDR      r2,[r6,#0x24]
        0x00001460:    0612        ..      LSLS     r2,r2,#24
        0x00001462:    d508        ..      BPL      0x1476 ; ADC_IRQHandler + 68
        0x00001464:    6832        2h      LDR      r2,[r6,#0]
        0x00001466:    0592        ..      LSLS     r2,r2,#22
        0x00001468:    0d92        ..      LSRS     r2,r2,#22
        0x0000146a:    844a        J.      STRH     r2,[r1,#0x22]
        0x0000146c:    6a71        qj      LDR      r1,[r6,#0x24]
        0x0000146e:    0a09        ..      LSRS     r1,r1,#8
        0x00001470:    0209        ..      LSLS     r1,r1,#8
        0x00001472:    1c49        I.      ADDS     r1,r1,#1
        0x00001474:    6271        qb      STR      r1,[r6,#0x24]
        0x00001476:    6a31        1j      LDR      r1,[r6,#0x20]
        0x00001478:    2201        ."      MOVS     r2,#1
        0x0000147a:    02d2        ..      LSLS     r2,r2,#11
        0x0000147c:    4311        .C      ORRS     r1,r1,r2
        0x0000147e:    6231        1b      STR      r1,[r6,#0x20]
        0x00001480:    4d47        GM      LDR      r5,[pc,#284] ; [0x15a0] = 0x40010000
        0x00001482:    0780        ..      LSLS     r0,r0,#30
        0x00001484:    2700        .'      MOVS     r7,#0
        0x00001486:    3520         5      ADDS     r5,r5,#0x20
        0x00001488:    2800        .(      CMP      r0,#0
        0x0000148a:    da18        ..      BGE      0x14be ; ADC_IRQHandler + 140
        0x0000148c:    4850        PH      LDR      r0,[pc,#320] ; [0x15d0] = 0x50004240
        0x0000148e:    6207        .b      STR      r7,[r0,#0x20]
        0x00001490:    494d        MI      LDR      r1,[pc,#308] ; [0x15c8] = 0x40040040
        0x00001492:    614f        Oa      STR      r7,[r1,#0x14]
        0x00001494:    4842        BH      LDR      r0,[pc,#264] ; [0x15a0] = 0x40010000
        0x00001496:    6803        .h      LDR      r3,[r0,#0]
        0x00001498:    0382        ..      LSLS     r2,r0,#14
        0x0000149a:    4393        .C      BICS     r3,r3,r2
        0x0000149c:    6003        .`      STR      r3,[r0,#0]
        0x0000149e:    682b        +h      LDR      r3,[r5,#0]
        0x000014a0:    4393        .C      BICS     r3,r3,r2
        0x000014a2:    602b        +`      STR      r3,[r5,#0]
        0x000014a4:    6803        .h      LDR      r3,[r0,#0]
        0x000014a6:    0342        B.      LSLS     r2,r0,#13
        0x000014a8:    4393        .C      BICS     r3,r3,r2
        0x000014aa:    6003        .`      STR      r3,[r0,#0]
        0x000014ac:    6828        (h      LDR      r0,[r5,#0]
        0x000014ae:    4390        .C      BICS     r0,r0,r2
        0x000014b0:    6028        (`      STR      r0,[r5,#0]
        0x000014b2:    20ff        .       MOVS     r0,#0xff
        0x000014b4:    63c8        .c      STR      r0,[r1,#0x3c]
        0x000014b6:    6388        .c      STR      r0,[r1,#0x38]
        0x000014b8:    2007        .       MOVS     r0,#7
        0x000014ba:    f000f8aa    ....    BL       setError ; 0x1612
        0x000014be:    7b20         {      LDRB     r0,[r4,#0xc]
        0x000014c0:    0740        @.      LSLS     r0,r0,#29
        0x000014c2:    d529        ).      BPL      0x1518 ; ADC_IRQHandler + 230
        0x000014c4:    4843        CH      LDR      r0,[pc,#268] ; [0x15d4] = 0x20000000
        0x000014c6:    6800        .h      LDR      r0,[r0,#0]
        0x000014c8:    6120         a      STR      r0,[r4,#0x10]
        0x000014ca:    6961        ai      LDR      r1,[r4,#0x14]
        0x000014cc:    1a40        @.      SUBS     r0,r0,r1
        0x000014ce:    280a        .(      CMP      r0,#0xa
        0x000014d0:    d21f        ..      BCS      0x1512 ; ADC_IRQHandler + 224
        0x000014d2:    8820         .      LDRH     r0,[r4,#0]
        0x000014d4:    2832        2(      CMP      r0,#0x32
        0x000014d6:    d202        ..      BCS      0x14de ; ADC_IRQHandler + 172
        0x000014d8:    1c40        @.      ADDS     r0,r0,#1
        0x000014da:    8020         .      STRH     r0,[r4,#0]
        0x000014dc:    e01a        ..      B        0x1514 ; ADC_IRQHandler + 226
        0x000014de:    483c        <H      LDR      r0,[pc,#240] ; [0x15d0] = 0x50004240
        0x000014e0:    6207        .b      STR      r7,[r0,#0x20]
        0x000014e2:    4939        9I      LDR      r1,[pc,#228] ; [0x15c8] = 0x40040040
        0x000014e4:    614f        Oa      STR      r7,[r1,#0x14]
        0x000014e6:    482e        .H      LDR      r0,[pc,#184] ; [0x15a0] = 0x40010000
        0x000014e8:    6802        .h      LDR      r2,[r0,#0]
        0x000014ea:    0383        ..      LSLS     r3,r0,#14
        0x000014ec:    439a        .C      BICS     r2,r2,r3
        0x000014ee:    6002        .`      STR      r2,[r0,#0]
        0x000014f0:    682a        *h      LDR      r2,[r5,#0]
        0x000014f2:    439a        .C      BICS     r2,r2,r3
        0x000014f4:    602a        *`      STR      r2,[r5,#0]
        0x000014f6:    6803        .h      LDR      r3,[r0,#0]
        0x000014f8:    0342        B.      LSLS     r2,r0,#13
        0x000014fa:    4393        .C      BICS     r3,r3,r2
        0x000014fc:    6003        .`      STR      r3,[r0,#0]
        0x000014fe:    6828        (h      LDR      r0,[r5,#0]
        0x00001500:    4390        .C      BICS     r0,r0,r2
        0x00001502:    6028        (`      STR      r0,[r5,#0]
        0x00001504:    20ff        .       MOVS     r0,#0xff
        0x00001506:    63c8        .c      STR      r0,[r1,#0x3c]
        0x00001508:    6388        .c      STR      r0,[r1,#0x38]
        0x0000150a:    2005        .       MOVS     r0,#5
        0x0000150c:    f000f881    ....    BL       setError ; 0x1612
        0x00001510:    e000        ..      B        0x1514 ; ADC_IRQHandler + 226
        0x00001512:    8027        '.      STRH     r7,[r4,#0]
        0x00001514:    6920         i      LDR      r0,[r4,#0x10]
        0x00001516:    6160        `a      STR      r0,[r4,#0x14]
        0x00001518:    6b30        0k      LDR      r0,[r6,#0x30]
        0x0000151a:    68e1        .h      LDR      r1,[r4,#0xc]
        0x0000151c:    08c0        ..      LSRS     r0,r0,#3
        0x0000151e:    00c0        ..      LSLS     r0,r0,#3
        0x00001520:    4308        .C      ORRS     r0,r0,r1
        0x00001522:    6330        0c      STR      r0,[r6,#0x30]
        0x00001524:    bdf8        ..      POP      {r3-r7,pc}
    SPI_IRQHandler
        0x00001526:    b5f8        ..      PUSH     {r3-r7,lr}
        0x00001528:    4c2b        +L      LDR      r4,[pc,#172] ; [0x15d8] = 0x40030000
        0x0000152a:    6820         h      LDR      r0,[r4,#0]
        0x0000152c:    03c0        ..      LSLS     r0,r0,#15
        0x0000152e:    d531        1.      BPL      0x1594 ; SPI_IRQHandler + 110
        0x00001530:    68a0        .h      LDR      r0,[r4,#8]
        0x00001532:    4a2a        *J      LDR      r2,[pc,#168] ; [0x15dc] = 0x20000244
        0x00001534:    0680        ..      LSLS     r0,r0,#26
        0x00001536:    6811        .h      LDR      r1,[r2,#0]
        0x00001538:    1c49        I.      ADDS     r1,r1,#1
        0x0000153a:    2800        .(      CMP      r0,#0
        0x0000153c:    da21        !.      BGE      0x1582 ; SPI_IRQHandler + 92
        0x0000153e:    4e1a        .N      LDR      r6,[pc,#104] ; [0x15a8] = 0x20000290
        0x00001540:    8870        p.      LDRH     r0,[r6,#2]
        0x00001542:    06c0        ..      LSLS     r0,r0,#27
        0x00001544:    d41d        ..      BMI      0x1582 ; SPI_IRQHandler + 92
        0x00001546:    6c60        `l      LDR      r0,[r4,#0x44]
        0x00001548:    4d25        %M      LDR      r5,[pc,#148] ; [0x15e0] = 0x20000038
        0x0000154a:    0400        ..      LSLS     r0,r0,#16
        0x0000154c:    0f00        ..      LSRS     r0,r0,#28
        0x0000154e:    2801        .(      CMP      r0,#1
        0x00001550:    d002        ..      BEQ      0x1558 ; SPI_IRQHandler + 50
        0x00001552:    2802        .(      CMP      r0,#2
        0x00001554:    d00b        ..      BEQ      0x156e ; SPI_IRQHandler + 72
        0x00001556:    e014        ..      B        0x1582 ; SPI_IRQHandler + 92
        0x00001558:    6920         i      LDR      r0,[r4,#0x10]
        0x0000155a:    0c03        ..      LSRS     r3,r0,#16
        0x0000155c:    802b        +.      STRH     r3,[r5,#0]
        0x0000155e:    8068        h.      STRH     r0,[r5,#2]
        0x00001560:    0bd8        ..      LSRS     r0,r3,#15
        0x00001562:    d00e        ..      BEQ      0x1582 ; SPI_IRQHandler + 92
        0x00001564:    8870        p.      LDRH     r0,[r6,#2]
        0x00001566:    2110        .!      MOVS     r1,#0x10
        0x00001568:    4308        .C      ORRS     r0,r0,r1
        0x0000156a:    8070        p.      STRH     r0,[r6,#2]
        0x0000156c:    e00a        ..      B        0x1584 ; SPI_IRQHandler + 94
        0x0000156e:    6923        #i      LDR      r3,[r4,#0x10]
        0x00001570:    0c18        ..      LSRS     r0,r3,#16
        0x00001572:    8028        (.      STRH     r0,[r5,#0]
        0x00001574:    806b        k.      STRH     r3,[r5,#2]
        0x00001576:    6923        #i      LDR      r3,[r4,#0x10]
        0x00001578:    0c1f        ..      LSRS     r7,r3,#16
        0x0000157a:    80af        ..      STRH     r7,[r5,#4]
        0x0000157c:    80eb        ..      STRH     r3,[r5,#6]
        0x0000157e:    0400        ..      LSLS     r0,r0,#16
        0x00001580:    d5f0        ..      BPL      0x1564 ; SPI_IRQHandler + 62
        0x00001582:    6011        .`      STR      r1,[r2,#0]
        0x00001584:    4620         F      MOV      r0,r4
        0x00001586:    f7fff8bf    ....    BL       SPI_ClearRxFIFO ; 0x708
        0x0000158a:    6c61        al      LDR      r1,[r4,#0x44]
        0x0000158c:    2201        ."      MOVS     r2,#1
        0x0000158e:    0412        ..      LSLS     r2,r2,#16
        0x00001590:    4311        .C      ORRS     r1,r1,r2
        0x00001592:    6461        ad      STR      r1,[r4,#0x44]
        0x00001594:    bdf8        ..      POP      {r3-r7,pc}
    SysTick_Handler
        0x00001596:    480f        .H      LDR      r0,[pc,#60] ; [0x15d4] = 0x20000000
        0x00001598:    6801        .h      LDR      r1,[r0,#0]
        0x0000159a:    1d49        I.      ADDS     r1,r1,#5
        0x0000159c:    6001        .`      STR      r1,[r0,#0]
        0x0000159e:    4770        pG      BX       lr
    $d
        0x000015a0:    40010000    ...@    DCD    1073807360
        0x000015a4:    2000000a    ...     DCD    536870922
        0x000015a8:    20000290    ...     DCD    536871568
        0x000015ac:    00ffffff    ....    DCD    16777215
        0x000015b0:    ff0000a1    ....    DCD    4278190241
        0x000015b4:    20000024    $..     DCD    536870948
        0x000015b8:    20000020     ..     DCD    536870944
        0x000015bc:    20000248    H..     DCD    536871496
        0x000015c0:    0000251b    .%..    DCD    9499
        0x000015c4:    400d0000    ...@    DCD    1074593792
        0x000015c8:    40040040    @..@    DCD    1074004032
        0x000015cc:    400e0000    ...@    DCD    1074659328
        0x000015d0:    50004240    @B.P    DCD    1342194240
        0x000015d4:    20000000    ...     DCD    536870912
        0x000015d8:    40030000    ...@    DCD    1073938432
        0x000015dc:    20000244    D..     DCD    536871492
        0x000015e0:    20000038    8..     DCD    536870968
    $t
    .text
    delay
        0x000015e4:    4932        2I      LDR      r1,[pc,#200] ; [0x16b0] = 0x20000000
        0x000015e6:    680a        .h      LDR      r2,[r1,#0]
        0x000015e8:    e000        ..      B        0x15ec ; delay + 8
        0x000015ea:    bf00        ..      NOP      
        0x000015ec:    680b        .h      LDR      r3,[r1,#0]
        0x000015ee:    1a9b        ..      SUBS     r3,r3,r2
        0x000015f0:    4283        .B      CMP      r3,r0
        0x000015f2:    d3fa        ..      BCC      0x15ea ; delay + 6
        0x000015f4:    4770        pG      BX       lr
    clearError
        0x000015f6:    492f        /I      LDR      r1,[pc,#188] ; [0x16b4] = 0x20000260
        0x000015f8:    2000        .       MOVS     r0,#0
        0x000015fa:    6088        .`      STR      r0,[r1,#8]
        0x000015fc:    4770        pG      BX       lr
    resetError
        0x000015fe:    2800        .(      CMP      r0,#0
        0x00001600:    d006        ..      BEQ      0x1610 ; resetError + 18
        0x00001602:    2101        .!      MOVS     r1,#1
        0x00001604:    1e40        @.      SUBS     r0,r0,#1
        0x00001606:    4081        .@      LSLS     r1,r1,r0
        0x00001608:    482a        *H      LDR      r0,[pc,#168] ; [0x16b4] = 0x20000260
        0x0000160a:    6882        .h      LDR      r2,[r0,#8]
        0x0000160c:    438a        .C      BICS     r2,r2,r1
        0x0000160e:    6082        .`      STR      r2,[r0,#8]
        0x00001610:    4770        pG      BX       lr
    setError
        0x00001612:    4928        (I      LDR      r1,[pc,#160] ; [0x16b4] = 0x20000260
        0x00001614:    2800        .(      CMP      r0,#0
        0x00001616:    d006        ..      BEQ      0x1626 ; setError + 20
        0x00001618:    2201        ."      MOVS     r2,#1
        0x0000161a:    1e40        @.      SUBS     r0,r0,#1
        0x0000161c:    4082        .@      LSLS     r2,r2,r0
        0x0000161e:    6888        .h      LDR      r0,[r1,#8]
        0x00001620:    4302        .C      ORRS     r2,r2,r0
        0x00001622:    608a        .`      STR      r2,[r1,#8]
        0x00001624:    4770        pG      BX       lr
        0x00001626:    2000        .       MOVS     r0,#0
        0x00001628:    6088        .`      STR      r0,[r1,#8]
        0x0000162a:    4770        pG      BX       lr
    getPrecedenceError
        0x0000162c:    4921        !I      LDR      r1,[pc,#132] ; [0x16b4] = 0x20000260
        0x0000162e:    2008        .       MOVS     r0,#8
        0x00001630:    688a        .h      LDR      r2,[r1,#8]
        0x00001632:    1e40        @.      SUBS     r0,r0,#1
        0x00001634:    b2c0        ..      UXTB     r0,r0
        0x00001636:    4611        .F      MOV      r1,r2
        0x00001638:    40c1        .@      LSRS     r1,r1,r0
        0x0000163a:    d002        ..      BEQ      0x1642 ; getPrecedenceError + 22
        0x0000163c:    1c40        @.      ADDS     r0,r0,#1
        0x0000163e:    b2c0        ..      UXTB     r0,r0
        0x00001640:    4770        pG      BX       lr
        0x00001642:    2800        .(      CMP      r0,#0
        0x00001644:    d1f5        ..      BNE      0x1632 ; getPrecedenceError + 6
        0x00001646:    4770        pG      BX       lr
    LEDBlinkHandler
        0x00001648:    b5f8        ..      PUSH     {r3-r7,lr}
        0x0000164a:    2700        .'      MOVS     r7,#0
        0x0000164c:    4c1a        .L      LDR      r4,[pc,#104] ; [0x16b8] = 0x50004280
        0x0000164e:    4605        .F      MOV      r5,r0
        0x00001650:    2808        .(      CMP      r0,#8
        0x00001652:    d010        ..      BEQ      0x1676 ; LEDBlinkHandler + 46
        0x00001654:    2601        .&      MOVS     r6,#1
        0x00001656:    2d00        .-      CMP      r5,#0
        0x00001658:    d00f        ..      BEQ      0x167a ; LEDBlinkHandler + 50
        0x0000165a:    4815        .H      LDR      r0,[pc,#84] ; [0x16b0] = 0x20000000
        0x0000165c:    6800        .h      LDR      r0,[r0,#0]
        0x0000165e:    1a40        @.      SUBS     r0,r0,r1
        0x00001660:    217d        }!      MOVS     r1,#0x7d
        0x00001662:    0109        ..      LSLS     r1,r1,#4
        0x00001664:    f000f890    ....    BL       __aeabi_uidiv ; 0x1788
        0x00001668:    4608        .F      MOV      r0,r1
        0x0000166a:    4a14        .J      LDR      r2,[pc,#80] ; [0x16bc] = 0x1ce0
        0x0000166c:    00a9        ..      LSLS     r1,r5,#2
        0x0000166e:    5851        QX      LDR      r1,[r2,r1]
        0x00001670:    4281        .B      CMP      r1,r0
        0x00001672:    d902        ..      BLS      0x167a ; LEDBlinkHandler + 50
        0x00001674:    e003        ..      B        0x167e ; LEDBlinkHandler + 54
        0x00001676:    6327        'c      STR      r7,[r4,#0x30]
        0x00001678:    bdf8        ..      POP      {r3-r7,pc}
        0x0000167a:    6326        &c      STR      r6,[r4,#0x30]
        0x0000167c:    bdf8        ..      POP      {r3-r7,pc}
        0x0000167e:    21ff        .!      MOVS     r1,#0xff
        0x00001680:    3191        .1      ADDS     r1,r1,#0x91
        0x00001682:    f000f881    ....    BL       __aeabi_uidiv ; 0x1788
        0x00001686:    29c8        .)      CMP      r1,#0xc8
        0x00001688:    d2f7        ..      BCS      0x167a ; LEDBlinkHandler + 50
        0x0000168a:    e7f4        ..      B        0x1676 ; LEDBlinkHandler + 46
    ERR_Manager
        0x0000168c:    b510        ..      PUSH     {r4,lr}
        0x0000168e:    f7ffffcd    ....    BL       getPrecedenceError ; 0x162c
        0x00001692:    4a08        .J      LDR      r2,[pc,#32] ; [0x16b4] = 0x20000260
        0x00001694:    7811        .x      LDRB     r1,[r2,#0]
        0x00001696:    4281        .B      CMP      r1,r0
        0x00001698:    d004        ..      BEQ      0x16a4 ; ERR_Manager + 24
        0x0000169a:    4905        .I      LDR      r1,[pc,#20] ; [0x16b0] = 0x20000000
        0x0000169c:    7010        .p      STRB     r0,[r2,#0]
        0x0000169e:    6809        .h      LDR      r1,[r1,#0]
        0x000016a0:    6051        Q`      STR      r1,[r2,#4]
        0x000016a2:    e002        ..      B        0x16aa ; ERR_Manager + 30
        0x000016a4:    2800        .(      CMP      r0,#0
        0x000016a6:    d002        ..      BEQ      0x16ae ; ERR_Manager + 34
        0x000016a8:    6851        Qh      LDR      r1,[r2,#4]
        0x000016aa:    f7ffffcd    ....    BL       LEDBlinkHandler ; 0x1648
        0x000016ae:    bd10        ..      POP      {r4,pc}
    $d
        0x000016b0:    20000000    ...     DCD    536870912
        0x000016b4:    20000260    `..     DCD    536871520
        0x000016b8:    50004280    .B.P    DCD    1342194304
        0x000016bc:    00001ce0    ....    DCD    7392
    $t
    .text
    PTC_checkMotor
        0x000016c0:    b5f8        ..      PUSH     {r3-r7,lr}
        0x000016c2:    f7ffff98    ....    BL       clearError ; 0x15f6
        0x000016c6:    4f11        .O      LDR      r7,[pc,#68] ; [0x170c] = 0x400e0000
        0x000016c8:    480f        .H      LDR      r0,[pc,#60] ; [0x1708] = 0x50b05
        0x000016ca:    62b8        .b      STR      r0,[r7,#0x28]
        0x000016cc:    4810        .H      LDR      r0,[pc,#64] ; [0x1710] = 0x1890f39
        0x000016ce:    62f8        .b      STR      r0,[r7,#0x2c]
        0x000016d0:    4e10        .N      LDR      r6,[pc,#64] ; [0x1714] = 0x2000026c
        0x000016d2:    2400        .$      MOVS     r4,#0
        0x000016d4:    2000        .       MOVS     r0,#0
        0x000016d6:    00a5        ..      LSLS     r5,r4,#2
        0x000016d8:    5971        qY      LDR      r1,[r6,r5]
        0x000016da:    6008        .`      STR      r0,[r1,#0]
        0x000016dc:    2032        2       MOVS     r0,#0x32
        0x000016de:    f7ffff81    ....    BL       delay ; 0x15e4
        0x000016e2:    5971        qY      LDR      r1,[r6,r5]
        0x000016e4:    2001        .       MOVS     r0,#1
        0x000016e6:    6008        .`      STR      r0,[r1,#0]
        0x000016e8:    480b        .H      LDR      r0,[pc,#44] ; [0x1718] = 0x20000268
        0x000016ea:    6800        .h      LDR      r0,[r0,#0]
        0x000016ec:    2800        .(      CMP      r0,#0
        0x000016ee:    d001        ..      BEQ      0x16f4 ; PTC_checkMotor + 52
        0x000016f0:    f000f9d4    ....    BL       BLDC_stopMotor ; 0x1a9c
        0x000016f4:    1c64        d.      ADDS     r4,r4,#1
        0x000016f6:    b2e4        ..      UXTB     r4,r4
        0x000016f8:    2c06        .,      CMP      r4,#6
        0x000016fa:    d3eb        ..      BCC      0x16d4 ; PTC_checkMotor + 20
        0x000016fc:    4807        .H      LDR      r0,[pc,#28] ; [0x171c] = 0x440b05
        0x000016fe:    62b8        .b      STR      r0,[r7,#0x28]
        0x00001700:    4807        .H      LDR      r0,[pc,#28] ; [0x1720] = 0x15c0f39
        0x00001702:    62f8        .b      STR      r0,[r7,#0x2c]
        0x00001704:    bdf8        ..      POP      {r3-r7,pc}
    $d
        0x00001706:    0000        ..      DCW    0
        0x00001708:    00050b05    ....    DCD    330501
        0x0000170c:    400e0000    ...@    DCD    1074659328
        0x00001710:    01890f39    9...    DCD    25759545
        0x00001714:    2000026c    l..     DCD    536871532
        0x00001718:    20000268    h..     DCD    536871528
        0x0000171c:    00440b05    ..D.    DCD    4459269
        0x00001720:    015c0f39    9.\.    DCD    22810425
    $t
    .text
    SystemCoreClockUpdate
        0x00001724:    b510        ..      PUSH     {r4,lr}
        0x00001726:    4a0d        .J      LDR      r2,[pc,#52] ; [0x175c] = 0x50000200
        0x00001728:    6910        .i      LDR      r0,[r2,#0x10]
        0x0000172a:    0741        A.      LSLS     r1,r0,#29
        0x0000172c:    0f49        I.      LSRS     r1,r1,#29
        0x0000172e:    d011        ..      BEQ      0x1754 ; SystemCoreClockUpdate + 48
        0x00001730:    2903        .)      CMP      r1,#3
        0x00001732:    d011        ..      BEQ      0x1758 ; SystemCoreClockUpdate + 52
        0x00001734:    480a        .H      LDR      r0,[pc,#40] ; [0x1760] = 0x1518000
        0x00001736:    6991        .i      LDR      r1,[r2,#0x18]
        0x00001738:    0709        ..      LSLS     r1,r1,#28
        0x0000173a:    0f09        ..      LSRS     r1,r1,#28
        0x0000173c:    1c49        I.      ADDS     r1,r1,#1
        0x0000173e:    f000f823    ..#.    BL       __aeabi_uidiv ; 0x1788
        0x00001742:    4c08        .L      LDR      r4,[pc,#32] ; [0x1764] = 0x20000284
        0x00001744:    4908        .I      LDR      r1,[pc,#32] ; [0x1768] = 0xf4240
        0x00001746:    6020         `      STR      r0,[r4,#0]
        0x00001748:    104a        J.      ASRS     r2,r1,#1
        0x0000174a:    1880        ..      ADDS     r0,r0,r2
        0x0000174c:    f000f81c    ....    BL       __aeabi_uidiv ; 0x1788
        0x00001750:    6060        ``      STR      r0,[r4,#4]
        0x00001752:    bd10        ..      POP      {r4,pc}
        0x00001754:    4805        .H      LDR      r0,[pc,#20] ; [0x176c] = 0xb71b00
        0x00001756:    e7ee        ..      B        0x1736 ; SystemCoreClockUpdate + 18
        0x00001758:    4805        .H      LDR      r0,[pc,#20] ; [0x1770] = 0x2710
        0x0000175a:    e7ec        ..      B        0x1736 ; SystemCoreClockUpdate + 18
    $d
        0x0000175c:    50000200    ...P    DCD    1342177792
        0x00001760:    01518000    ..Q.    DCD    22118400
        0x00001764:    20000284    ...     DCD    536871556
        0x00001768:    000f4240    @B..    DCD    1000000
        0x0000176c:    00b71b00    ....    DCD    12000000
        0x00001770:    00002710    .'..    DCD    10000
    $t
    .text
    Reset_Handler
        0x00001774:    4803        .H      LDR      r0,[pc,#12] ; [0x1784] = 0xc1
        0x00001776:    4700        .G      BX       r0
    NMI_Handler
        0x00001778:    e7fe        ..      B        NMI_Handler ; 0x1778
    HardFault_Handler
        0x0000177a:    e7fe        ..      B        HardFault_Handler ; 0x177a
    SVC_Handler
        0x0000177c:    e7fe        ..      B        SVC_Handler ; 0x177c
    PendSV_Handler
        0x0000177e:    e7fe        ..      B        PendSV_Handler ; 0x177e
        0x00001780:    e7fe        ..      B        0x1780 ; PendSV_Handler + 2
    Default_Handler
    BOD_IRQHandler
    EINT0_IRQHandler
    EINT1_IRQHandler
    FB_IRQHandler
    GPIO01_IRQHandler
    GPIO234_IRQHandler
    GPIO5_IRQHandler
    HIRC_IRQHandler
    I2C_IRQHandler
    PDWU_IRQHandler
    PWM_IRQHandler
    UART_IRQHandler
    WDT_IRQHandler
        0x00001782:    e7fe        ..      B        Default_Handler ; 0x1782
    $d
        0x00001784:    000000c1    ....    DCD    193
    $t
    .text
    __aeabi_uidiv
    __aeabi_uidivmod
        0x00001788:    b530        0.      PUSH     {r4,r5,lr}
        0x0000178a:    460b        .F      MOV      r3,r1
        0x0000178c:    4601        .F      MOV      r1,r0
        0x0000178e:    2000        .       MOVS     r0,#0
        0x00001790:    2220         "      MOVS     r2,#0x20
        0x00001792:    2401        .$      MOVS     r4,#1
        0x00001794:    e009        ..      B        0x17aa ; __aeabi_uidiv + 34
        0x00001796:    460d        .F      MOV      r5,r1
        0x00001798:    40d5        .@      LSRS     r5,r5,r2
        0x0000179a:    429d        .B      CMP      r5,r3
        0x0000179c:    d305        ..      BCC      0x17aa ; __aeabi_uidiv + 34
        0x0000179e:    461d        .F      MOV      r5,r3
        0x000017a0:    4095        .@      LSLS     r5,r5,r2
        0x000017a2:    1b49        I.      SUBS     r1,r1,r5
        0x000017a4:    4625        %F      MOV      r5,r4
        0x000017a6:    4095        .@      LSLS     r5,r5,r2
        0x000017a8:    1940        @.      ADDS     r0,r0,r5
        0x000017aa:    4615        .F      MOV      r5,r2
        0x000017ac:    1e52        R.      SUBS     r2,r2,#1
        0x000017ae:    2d00        .-      CMP      r5,#0
        0x000017b0:    dcf1        ..      BGT      0x1796 ; __aeabi_uidiv + 14
        0x000017b2:    bd30        0.      POP      {r4,r5,pc}
    .text
    __aeabi_dmul
        0x000017b4:    b5f0        ..      PUSH     {r4-r7,lr}
        0x000017b6:    b41f        ..      PUSH     {r0-r4}
        0x000017b8:    b088        ..      SUB      sp,sp,#0x20
        0x000017ba:    990b        ..      LDR      r1,[sp,#0x2c]
        0x000017bc:    9809        ..      LDR      r0,[sp,#0x24]
        0x000017be:    2400        .$      MOVS     r4,#0
        0x000017c0:    4048        H@      EORS     r0,r0,r1
        0x000017c2:    9909        ..      LDR      r1,[sp,#0x24]
        0x000017c4:    0fc0        ..      LSRS     r0,r0,#31
        0x000017c6:    0049        I.      LSLS     r1,r1,#1
        0x000017c8:    0849        I.      LSRS     r1,r1,#1
        0x000017ca:    9109        ..      STR      r1,[sp,#0x24]
        0x000017cc:    07c0        ..      LSLS     r0,r0,#31
        0x000017ce:    990b        ..      LDR      r1,[sp,#0x2c]
        0x000017d0:    9000        ..      STR      r0,[sp,#0]
        0x000017d2:    0049        I.      LSLS     r1,r1,#1
        0x000017d4:    0849        I.      LSRS     r1,r1,#1
        0x000017d6:    910b        ..      STR      r1,[sp,#0x2c]
        0x000017d8:    9909        ..      LDR      r1,[sp,#0x24]
        0x000017da:    9808        ..      LDR      r0,[sp,#0x20]
        0x000017dc:    46a6        .F      MOV      lr,r4
        0x000017de:    4308        .C      ORRS     r0,r0,r1
        0x000017e0:    d01c        ..      BEQ      0x181c ; __aeabi_dmul + 104
        0x000017e2:    990b        ..      LDR      r1,[sp,#0x2c]
        0x000017e4:    980a        ..      LDR      r0,[sp,#0x28]
        0x000017e6:    4308        .C      ORRS     r0,r0,r1
        0x000017e8:    d018        ..      BEQ      0x181c ; __aeabi_dmul + 104
        0x000017ea:    9809        ..      LDR      r0,[sp,#0x24]
        0x000017ec:    2401        .$      MOVS     r4,#1
        0x000017ee:    0040        @.      LSLS     r0,r0,#1
        0x000017f0:    0d42        B.      LSRS     r2,r0,#21
        0x000017f2:    0048        H.      LSLS     r0,r1,#1
        0x000017f4:    0d41        A.      LSRS     r1,r0,#21
        0x000017f6:    9809        ..      LDR      r0,[sp,#0x24]
        0x000017f8:    0524        $.      LSLS     r4,r4,#20
        0x000017fa:    0300        ..      LSLS     r0,r0,#12
        0x000017fc:    0b00        ..      LSRS     r0,r0,#12
        0x000017fe:    4320         C      ORRS     r0,r0,r4
        0x00001800:    9009        ..      STR      r0,[sp,#0x24]
        0x00001802:    980b        ..      LDR      r0,[sp,#0x2c]
        0x00001804:    0300        ..      LSLS     r0,r0,#12
        0x00001806:    0b00        ..      LSRS     r0,r0,#12
        0x00001808:    4320         C      ORRS     r0,r0,r4
        0x0000180a:    900b        ..      STR      r0,[sp,#0x2c]
        0x0000180c:    1850        P.      ADDS     r0,r2,r1
        0x0000180e:    491c        .I      LDR      r1,[pc,#112] ; [0x1880] = 0xfffffc0d
        0x00001810:    1840        @.      ADDS     r0,r0,r1
        0x00001812:    2200        ."      MOVS     r2,#0
        0x00001814:    9001        ..      STR      r0,[sp,#4]
        0x00001816:    4614        .F      MOV      r4,r2
        0x00001818:    4610        .F      MOV      r0,r2
        0x0000181a:    e005        ..      B        0x1828 ; __aeabi_dmul + 116
        0x0000181c:    2000        .       MOVS     r0,#0
        0x0000181e:    4601        .F      MOV      r1,r0
        0x00001820:    b00d        ..      ADD      sp,sp,#0x34
        0x00001822:    bdf0        ..      POP      {r4-r7,pc}
        0x00001824:    2803        .(      CMP      r0,#3
        0x00001826:    da01        ..      BGE      0x182c ; __aeabi_dmul + 120
        0x00001828:    4603        .F      MOV      r3,r0
        0x0000182a:    e000        ..      B        0x182e ; __aeabi_dmul + 122
        0x0000182c:    2303        .#      MOVS     r3,#3
        0x0000182e:    469c        .F      MOV      r12,r3
        0x00001830:    1ac1        ..      SUBS     r1,r0,r3
        0x00001832:    ae0a        ..      ADD      r6,sp,#0x28
        0x00001834:    e00a        ..      B        0x184c ; __aeabi_dmul + 152
        0x00001836:    005f        _.      LSLS     r7,r3,#1
        0x00001838:    ad08        ..      ADD      r5,sp,#0x20
        0x0000183a:    5bed        .[      LDRH     r5,[r5,r7]
        0x0000183c:    004f        O.      LSLS     r7,r1,#1
        0x0000183e:    5bf7        .[      LDRH     r7,[r6,r7]
        0x00001840:    437d        }C      MULS     r5,r7,r5
        0x00001842:    2700        .'      MOVS     r7,#0
        0x00001844:    18aa        ..      ADDS     r2,r5,r2
        0x00001846:    417c        |A      ADCS     r4,r4,r7
        0x00001848:    1c49        I.      ADDS     r1,r1,#1
        0x0000184a:    1e5b        [.      SUBS     r3,r3,#1
        0x0000184c:    4561        aE      CMP      r1,r12
        0x0000184e:    ddf2        ..      BLE      0x1836 ; __aeabi_dmul + 130
        0x00001850:    0041        A.      LSLS     r1,r0,#1
        0x00001852:    ab04        ..      ADD      r3,sp,#0x10
        0x00001854:    525a        ZR      STRH     r2,[r3,r1]
        0x00001856:    0421        !.      LSLS     r1,r4,#16
        0x00001858:    0c12        ..      LSRS     r2,r2,#16
        0x0000185a:    430a        .C      ORRS     r2,r2,r1
        0x0000185c:    0c24        $.      LSRS     r4,r4,#16
        0x0000185e:    1c40        @.      ADDS     r0,r0,#1
        0x00001860:    2808        .(      CMP      r0,#8
        0x00001862:    dbdf        ..      BLT      0x1824 ; __aeabi_dmul + 112
        0x00001864:    9801        ..      LDR      r0,[sp,#4]
        0x00001866:    9002        ..      STR      r0,[sp,#8]
        0x00001868:    9900        ..      LDR      r1,[sp,#0]
        0x0000186a:    4670        pF      MOV      r0,lr
        0x0000186c:    9101        ..      STR      r1,[sp,#4]
        0x0000186e:    9000        ..      STR      r0,[sp,#0]
        0x00001870:    9b05        ..      LDR      r3,[sp,#0x14]
        0x00001872:    9a04        ..      LDR      r2,[sp,#0x10]
        0x00001874:    9907        ..      LDR      r1,[sp,#0x1c]
        0x00001876:    9806        ..      LDR      r0,[sp,#0x18]
        0x00001878:    f000f84e    ..N.    BL       _double_epilogue ; 0x1918
        0x0000187c:    e7d0        ..      B        0x1820 ; __aeabi_dmul + 108
    $d
        0x0000187e:    0000        ..      DCW    0
        0x00001880:    fffffc0d    ....    DCD    4294966285
    $t
    .text
    __aeabi_ui2d
        0x00001884:    b50e        ..      PUSH     {r1-r3,lr}
        0x00001886:    4905        .I      LDR      r1,[pc,#20] ; [0x189c] = 0x433
        0x00001888:    9102        ..      STR      r1,[sp,#8]
        0x0000188a:    2100        .!      MOVS     r1,#0
        0x0000188c:    9100        ..      STR      r1,[sp,#0]
        0x0000188e:    460a        .F      MOV      r2,r1
        0x00001890:    460b        .F      MOV      r3,r1
        0x00001892:    9101        ..      STR      r1,[sp,#4]
        0x00001894:    f000f840    ..@.    BL       _double_epilogue ; 0x1918
        0x00001898:    b003        ..      ADD      sp,sp,#0xc
        0x0000189a:    bd00        ..      POP      {pc}
    $d
        0x0000189c:    00000433    3...    DCD    1075
    $t
    .text
    __aeabi_d2uiz
        0x000018a0:    004a        J.      LSLS     r2,r1,#1
        0x000018a2:    0309        ..      LSLS     r1,r1,#12
        0x000018a4:    2301        .#      MOVS     r3,#1
        0x000018a6:    0b09        ..      LSRS     r1,r1,#12
        0x000018a8:    051b        ..      LSLS     r3,r3,#20
        0x000018aa:    4319        .C      ORRS     r1,r1,r3
        0x000018ac:    4b09        .K      LDR      r3,[pc,#36] ; [0x18d4] = 0x3ff
        0x000018ae:    b510        ..      PUSH     {r4,lr}
        0x000018b0:    0d52        R.      LSRS     r2,r2,#21
        0x000018b2:    429a        .B      CMP      r2,r3
        0x000018b4:    da01        ..      BGE      0x18ba ; __aeabi_d2uiz + 26
        0x000018b6:    2000        .       MOVS     r0,#0
        0x000018b8:    bd10        ..      POP      {r4,pc}
        0x000018ba:    4b06        .K      LDR      r3,[pc,#24] ; [0x18d4] = 0x3ff
        0x000018bc:    3334        43      ADDS     r3,r3,#0x34
        0x000018be:    429a        .B      CMP      r2,r3
        0x000018c0:    dc03        ..      BGT      0x18ca ; __aeabi_d2uiz + 42
        0x000018c2:    1a9a        ..      SUBS     r2,r3,r2
        0x000018c4:    f000f80a    ....    BL       __aeabi_llsr ; 0x18dc
        0x000018c8:    bd10        ..      POP      {r4,pc}
        0x000018ca:    4903        .I      LDR      r1,[pc,#12] ; [0x18d8] = 0xfffffbcd
        0x000018cc:    1851        Q.      ADDS     r1,r2,r1
        0x000018ce:    4088        .@      LSLS     r0,r0,r1
        0x000018d0:    bd10        ..      POP      {r4,pc}
    $d
        0x000018d2:    0000        ..      DCW    0
        0x000018d4:    000003ff    ....    DCD    1023
        0x000018d8:    fffffbcd    ....    DCD    4294966221
    $t
    .text
    __aeabi_llsr
    _ll_ushift_r
        0x000018dc:    b510        ..      PUSH     {r4,lr}
        0x000018de:    2a20         *      CMP      r2,#0x20
        0x000018e0:    db04        ..      BLT      0x18ec ; __aeabi_llsr + 16
        0x000018e2:    4608        .F      MOV      r0,r1
        0x000018e4:    3a20         :      SUBS     r2,r2,#0x20
        0x000018e6:    40d0        .@      LSRS     r0,r0,r2
        0x000018e8:    2100        .!      MOVS     r1,#0
        0x000018ea:    bd10        ..      POP      {r4,pc}
        0x000018ec:    460b        .F      MOV      r3,r1
        0x000018ee:    40d3        .@      LSRS     r3,r3,r2
        0x000018f0:    40d0        .@      LSRS     r0,r0,r2
        0x000018f2:    2420         $      MOVS     r4,#0x20
        0x000018f4:    1aa2        ..      SUBS     r2,r4,r2
        0x000018f6:    4091        .@      LSLS     r1,r1,r2
        0x000018f8:    4308        .C      ORRS     r0,r0,r1
        0x000018fa:    4619        .F      MOV      r1,r3
        0x000018fc:    bd10        ..      POP      {r4,pc}
    .text
    .text
    __I$use$fp
    _double_round
        0x000018fe:    b510        ..      PUSH     {r4,lr}
        0x00001900:    2b00        .+      CMP      r3,#0
        0x00001902:    da08        ..      BGE      0x1916 ; __I$use$fp + 24
        0x00001904:    2400        .$      MOVS     r4,#0
        0x00001906:    1c40        @.      ADDS     r0,r0,#1
        0x00001908:    4161        aA      ADCS     r1,r1,r4
        0x0000190a:    1892        ..      ADDS     r2,r2,r2
        0x0000190c:    415b        [A      ADCS     r3,r3,r3
        0x0000190e:    431a        .C      ORRS     r2,r2,r3
        0x00001910:    d101        ..      BNE      0x1916 ; __I$use$fp + 24
        0x00001912:    0840        @.      LSRS     r0,r0,#1
        0x00001914:    0040        @.      LSLS     r0,r0,#1
        0x00001916:    bd10        ..      POP      {r4,pc}
    _double_epilogue
        0x00001918:    b5f0        ..      PUSH     {r4-r7,lr}
        0x0000191a:    b41f        ..      PUSH     {r0-r4}
        0x0000191c:    b082        ..      SUB      sp,sp,#8
        0x0000191e:    4605        .F      MOV      r5,r0
        0x00001920:    000c        ..      MOVS     r4,r1
        0x00001922:    d003        ..      BEQ      0x192c ; _double_epilogue + 20
        0x00001924:    4608        .F      MOV      r0,r1
        0x00001926:    f000f973    ..s.    BL       __ARM_clz ; 0x1c10
        0x0000192a:    e002        ..      B        0x1932 ; _double_epilogue + 26
        0x0000192c:    f000f970    ..p.    BL       __ARM_clz ; 0x1c10
        0x00001930:    3020         0      ADDS     r0,r0,#0x20
        0x00001932:    4602        .F      MOV      r2,r0
        0x00001934:    9000        ..      STR      r0,[sp,#0]
        0x00001936:    4621        !F      MOV      r1,r4
        0x00001938:    4628        (F      MOV      r0,r5
        0x0000193a:    f000f851    ..Q.    BL       __aeabi_llsl ; 0x19e0
        0x0000193e:    9b04        ..      LDR      r3,[sp,#0x10]
        0x00001940:    9a05        ..      LDR      r2,[sp,#0x14]
        0x00001942:    4604        .F      MOV      r4,r0
        0x00001944:    460f        .F      MOV      r7,r1
        0x00001946:    4318        .C      ORRS     r0,r0,r3
        0x00001948:    4311        .C      ORRS     r1,r1,r2
        0x0000194a:    4308        .C      ORRS     r0,r0,r1
        0x0000194c:    d014        ..      BEQ      0x1978 ; _double_epilogue + 96
        0x0000194e:    4618        .F      MOV      r0,r3
        0x00001950:    4310        .C      ORRS     r0,r0,r2
        0x00001952:    d01b        ..      BEQ      0x198c ; _double_epilogue + 116
        0x00001954:    9800        ..      LDR      r0,[sp,#0]
        0x00001956:    2140        @!      MOVS     r1,#0x40
        0x00001958:    1a0a        ..      SUBS     r2,r1,r0
        0x0000195a:    4618        .F      MOV      r0,r3
        0x0000195c:    9905        ..      LDR      r1,[sp,#0x14]
        0x0000195e:    f7ffffbd    ....    BL       __aeabi_llsr ; 0x18dc
        0x00001962:    4605        .F      MOV      r5,r0
        0x00001964:    460e        .F      MOV      r6,r1
        0x00001966:    9a00        ..      LDR      r2,[sp,#0]
        0x00001968:    9905        ..      LDR      r1,[sp,#0x14]
        0x0000196a:    9804        ..      LDR      r0,[sp,#0x10]
        0x0000196c:    f000f838    ..8.    BL       __aeabi_llsl ; 0x19e0
        0x00001970:    4308        .C      ORRS     r0,r0,r1
        0x00001972:    d005        ..      BEQ      0x1980 ; _double_epilogue + 104
        0x00001974:    2001        .       MOVS     r0,#1
        0x00001976:    e004        ..      B        0x1982 ; _double_epilogue + 106
        0x00001978:    4620         F      MOV      r0,r4
        0x0000197a:    4639        9F      MOV      r1,r7
        0x0000197c:    b007        ..      ADD      sp,sp,#0x1c
        0x0000197e:    bdf0        ..      POP      {r4-r7,pc}
        0x00001980:    2000        .       MOVS     r0,#0
        0x00001982:    17c1        ..      ASRS     r1,r0,#31
        0x00001984:    4305        .C      ORRS     r5,r5,r0
        0x00001986:    430e        .C      ORRS     r6,r6,r1
        0x00001988:    432c        ,C      ORRS     r4,r4,r5
        0x0000198a:    4337        7C      ORRS     r7,r7,r6
        0x0000198c:    9900        ..      LDR      r1,[sp,#0]
        0x0000198e:    980e        ..      LDR      r0,[sp,#0x38]
        0x00001990:    0563        c.      LSLS     r3,r4,#21
        0x00001992:    1a40        @.      SUBS     r0,r0,r1
        0x00001994:    0579        y.      LSLS     r1,r7,#21
        0x00001996:    0ae4        ..      LSRS     r4,r4,#11
        0x00001998:    2200        ."      MOVS     r2,#0
        0x0000199a:    430c        .C      ORRS     r4,r4,r1
        0x0000199c:    0afd        ..      LSRS     r5,r7,#11
        0x0000199e:    300a        .0      ADDS     r0,r0,#0xa
        0x000019a0:    d502        ..      BPL      0x19a8 ; _double_epilogue + 144
        0x000019a2:    2000        .       MOVS     r0,#0
        0x000019a4:    4601        .F      MOV      r1,r0
        0x000019a6:    e7e9        ..      B        0x197c ; _double_epilogue + 100
        0x000019a8:    0501        ..      LSLS     r1,r0,#20
        0x000019aa:    1910        ..      ADDS     r0,r2,r4
        0x000019ac:    4169        iA      ADCS     r1,r1,r5
        0x000019ae:    9c0c        ..      LDR      r4,[sp,#0x30]
        0x000019b0:    9d0d        ..      LDR      r5,[sp,#0x34]
        0x000019b2:    1900        ..      ADDS     r0,r0,r4
        0x000019b4:    4169        iA      ADCS     r1,r1,r5
        0x000019b6:    f7ffffa2    ....    BL       __I$use$fp ; 0x18fe
        0x000019ba:    e7df        ..      B        0x197c ; _double_epilogue + 100
    .text
    __scatterload
    __scatterload_rt2
        0x000019bc:    4c06        .L      LDR      r4,[pc,#24] ; [0x19d8] = 0x1d00
        0x000019be:    2501        .%      MOVS     r5,#1
        0x000019c0:    4e06        .N      LDR      r6,[pc,#24] ; [0x19dc] = 0x1d20
        0x000019c2:    e005        ..      B        0x19d0 ; __scatterload + 20
        0x000019c4:    68e3        .h      LDR      r3,[r4,#0xc]
        0x000019c6:    cc07        ..      LDM      r4!,{r0-r2}
        0x000019c8:    432b        +C      ORRS     r3,r3,r5
        0x000019ca:    3c0c        .<      SUBS     r4,r4,#0xc
        0x000019cc:    4798        .G      BLX      r3
        0x000019ce:    3410        .4      ADDS     r4,r4,#0x10
        0x000019d0:    42b4        .B      CMP      r4,r6
        0x000019d2:    d3f7        ..      BCC      0x19c4 ; __scatterload + 8
        0x000019d4:    f7fefb78    ..x.    BL       __main_after_scatterload ; 0xc8
    $d
        0x000019d8:    00001d00    ....    DCD    7424
        0x000019dc:    00001d20     ...    DCD    7456
    $t
    .text
    __aeabi_llsl
    _ll_shift_l
        0x000019e0:    b510        ..      PUSH     {r4,lr}
        0x000019e2:    2a20         *      CMP      r2,#0x20
        0x000019e4:    db04        ..      BLT      0x19f0 ; __aeabi_llsl + 16
        0x000019e6:    4601        .F      MOV      r1,r0
        0x000019e8:    3a20         :      SUBS     r2,r2,#0x20
        0x000019ea:    4091        .@      LSLS     r1,r1,r2
        0x000019ec:    2000        .       MOVS     r0,#0
        0x000019ee:    bd10        ..      POP      {r4,pc}
        0x000019f0:    4091        .@      LSLS     r1,r1,r2
        0x000019f2:    2320         #      MOVS     r3,#0x20
        0x000019f4:    1a9c        ..      SUBS     r4,r3,r2
        0x000019f6:    4603        .F      MOV      r3,r0
        0x000019f8:    40e3        .@      LSRS     r3,r3,r4
        0x000019fa:    4319        .C      ORRS     r1,r1,r3
        0x000019fc:    4090        .@      LSLS     r0,r0,r2
        0x000019fe:    bd10        ..      POP      {r4,pc}
    i.BLDCRampUp_Manager
    BLDCRampUp_Manager
        0x00001a00:    b570        p.      PUSH     {r4-r6,lr}
        0x00001a02:    4d1e        .M      LDR      r5,[pc,#120] ; [0x1a7c] = 0x20000004
        0x00001a04:    79a8        .y      LDRB     r0,[r5,#6]
        0x00001a06:    2801        .(      CMP      r0,#1
        0x00001a08:    d136        6.      BNE      0x1a78 ; BLDCRampUp_Manager + 120
        0x00001a0a:    f000f877    ..w.    BL       PhaseChangedRoutine ; 0x1afc
        0x00001a0e:    78e8        .x      LDRB     r0,[r5,#3]
        0x00001a10:    4c1b        .L      LDR      r4,[pc,#108] ; [0x1a80] = 0x20000290
        0x00001a12:    2809        .(      CMP      r0,#9
        0x00001a14:    d916        ..      BLS      0x1a44 ; BLDCRampUp_Manager + 68
        0x00001a16:    2000        .       MOVS     r0,#0
        0x00001a18:    70e8        .p      STRB     r0,[r5,#3]
        0x00001a1a:    69a0        .i      LDR      r0,[r4,#0x18]
        0x00001a1c:    4e19        .N      LDR      r6,[pc,#100] ; [0x1a84] = 0x3e7
        0x00001a1e:    42b0        .B      CMP      r0,r6
        0x00001a20:    69a0        .i      LDR      r0,[r4,#0x18]
        0x00001a22:    d308        ..      BCC      0x1a36 ; BLDCRampUp_Manager + 54
        0x00001a24:    f7ffff2e    ....    BL       __aeabi_ui2d ; 0x1884
        0x00001a28:    4a17        .J      LDR      r2,[pc,#92] ; [0x1a88] = 0xf5c28f5c
        0x00001a2a:    4b18        .K      LDR      r3,[pc,#96] ; [0x1a8c] = 0x3fef5c28
        0x00001a2c:    f7fffec2    ....    BL       __aeabi_dmul ; 0x17b4
        0x00001a30:    f7ffff36    ..6.    BL       __aeabi_d2uiz ; 0x18a0
        0x00001a34:    b280        ..      UXTH     r0,r0
        0x00001a36:    61a0        .a      STR      r0,[r4,#0x18]
        0x00001a38:    69a0        .i      LDR      r0,[r4,#0x18]
        0x00001a3a:    42b0        .B      CMP      r0,r6
        0x00001a3c:    d802        ..      BHI      0x1a44 ; BLDCRampUp_Manager + 68
        0x00001a3e:    8928        (.      LDRH     r0,[r5,#8]
        0x00001a40:    1c40        @.      ADDS     r0,r0,#1
        0x00001a42:    8128        (.      STRH     r0,[r5,#8]
        0x00001a44:    78e8        .x      LDRB     r0,[r5,#3]
        0x00001a46:    1c40        @.      ADDS     r0,r0,#1
        0x00001a48:    70e8        .p      STRB     r0,[r5,#3]
        0x00001a4a:    69a0        .i      LDR      r0,[r4,#0x18]
        0x00001a4c:    4910        .I      LDR      r1,[pc,#64] ; [0x1a90] = 0x40010000
        0x00001a4e:    6048        H`      STR      r0,[r1,#4]
        0x00001a50:    7968        hy      LDRB     r0,[r5,#5]
        0x00001a52:    2805        .(      CMP      r0,#5
        0x00001a54:    d201        ..      BCS      0x1a5a ; BLDCRampUp_Manager + 90
        0x00001a56:    1c40        @.      ADDS     r0,r0,#1
        0x00001a58:    e000        ..      B        0x1a5c ; BLDCRampUp_Manager + 92
        0x00001a5a:    2000        .       MOVS     r0,#0
        0x00001a5c:    b2c0        ..      UXTB     r0,r0
        0x00001a5e:    7168        hq      STRB     r0,[r5,#5]
        0x00001a60:    8821        !.      LDRH     r1,[r4,#0]
        0x00001a62:    0789        ..      LSLS     r1,r1,#30
        0x00001a64:    d402        ..      BMI      0x1a6c ; BLDCRampUp_Manager + 108
        0x00001a66:    0080        ..      LSLS     r0,r0,#2
        0x00001a68:    490a        .I      LDR      r1,[pc,#40] ; [0x1a94] = 0x1cb0
        0x00001a6a:    e002        ..      B        0x1a72 ; BLDCRampUp_Manager + 114
        0x00001a6c:    4909        .I      LDR      r1,[pc,#36] ; [0x1a94] = 0x1cb0
        0x00001a6e:    0080        ..      LSLS     r0,r0,#2
        0x00001a70:    3118        .1      ADDS     r1,r1,#0x18
        0x00001a72:    5808        .X      LDR      r0,[r1,r0]
        0x00001a74:    4908        .I      LDR      r1,[pc,#32] ; [0x1a98] = 0x40040040
        0x00001a76:    63c8        .c      STR      r0,[r1,#0x3c]
        0x00001a78:    bd70        p.      POP      {r4-r6,pc}
    $d
        0x00001a7a:    0000        ..      DCW    0
        0x00001a7c:    20000004    ...     DCD    536870916
        0x00001a80:    20000290    ...     DCD    536871568
        0x00001a84:    000003e7    ....    DCD    999
        0x00001a88:    f5c28f5c    \...    DCD    4123168604
        0x00001a8c:    3fef5c28    (\.?    DCD    1072651304
        0x00001a90:    40010000    ...@    DCD    1073807360
        0x00001a94:    00001cb0    ....    DCD    7344
        0x00001a98:    40040040    @..@    DCD    1074004032
    $t
    i.BLDC_stopMotor
    BLDC_stopMotor
        0x00001a9c:    b530        0.      PUSH     {r4,r5,lr}
        0x00001a9e:    4812        .H      LDR      r0,[pc,#72] ; [0x1ae8] = 0x50004240
        0x00001aa0:    2200        ."      MOVS     r2,#0
        0x00001aa2:    6202        .b      STR      r2,[r0,#0x20]
        0x00001aa4:    4b11        .K      LDR      r3,[pc,#68] ; [0x1aec] = 0x40040040
        0x00001aa6:    615a        Za      STR      r2,[r3,#0x14]
        0x00001aa8:    4811        .H      LDR      r0,[pc,#68] ; [0x1af0] = 0x40010000
        0x00001aaa:    6801        .h      LDR      r1,[r0,#0]
        0x00001aac:    0384        ..      LSLS     r4,r0,#14
        0x00001aae:    43a1        .C      BICS     r1,r1,r4
        0x00001ab0:    6001        .`      STR      r1,[r0,#0]
        0x00001ab2:    490f        .I      LDR      r1,[pc,#60] ; [0x1af0] = 0x40010000
        0x00001ab4:    3120         1      ADDS     r1,r1,#0x20
        0x00001ab6:    680d        .h      LDR      r5,[r1,#0]
        0x00001ab8:    43a5        .C      BICS     r5,r5,r4
        0x00001aba:    600d        .`      STR      r5,[r1,#0]
        0x00001abc:    6805        .h      LDR      r5,[r0,#0]
        0x00001abe:    0344        D.      LSLS     r4,r0,#13
        0x00001ac0:    43a5        .C      BICS     r5,r5,r4
        0x00001ac2:    6005        .`      STR      r5,[r0,#0]
        0x00001ac4:    6808        .h      LDR      r0,[r1,#0]
        0x00001ac6:    43a0        .C      BICS     r0,r0,r4
        0x00001ac8:    6008        .`      STR      r0,[r1,#0]
        0x00001aca:    20ff        .       MOVS     r0,#0xff
        0x00001acc:    63d8        .c      STR      r0,[r3,#0x3c]
        0x00001ace:    6398        .c      STR      r0,[r3,#0x38]
        0x00001ad0:    4808        .H      LDR      r0,[pc,#32] ; [0x1af4] = 0x20000290
        0x00001ad2:    8801        ..      LDRH     r1,[r0,#0]
        0x00001ad4:    0849        I.      LSRS     r1,r1,#1
        0x00001ad6:    0049        I.      LSLS     r1,r1,#1
        0x00001ad8:    8001        ..      STRH     r1,[r0,#0]
        0x00001ada:    8841        A.      LDRH     r1,[r0,#2]
        0x00001adc:    0849        I.      LSRS     r1,r1,#1
        0x00001ade:    0049        I.      LSLS     r1,r1,#1
        0x00001ae0:    8041        A.      STRH     r1,[r0,#2]
        0x00001ae2:    4805        .H      LDR      r0,[pc,#20] ; [0x1af8] = 0x20000004
        0x00001ae4:    7002        .p      STRB     r2,[r0,#0]
        0x00001ae6:    bd30        0.      POP      {r4,r5,pc}
    $d
        0x00001ae8:    50004240    @B.P    DCD    1342194240
        0x00001aec:    40040040    @..@    DCD    1074004032
        0x00001af0:    40010000    ...@    DCD    1073807360
        0x00001af4:    20000290    ...     DCD    536871568
        0x00001af8:    20000004    ...     DCD    536870916
    $t
    i.PhaseChangedRoutine
    PhaseChangedRoutine
        0x00001afc:    b5f8        ..      PUSH     {r3-r7,lr}
        0x00001afe:    4e3d        =N      LDR      r6,[pc,#244] ; [0x1bf4] = 0x20000004
        0x00001b00:    2500        .%      MOVS     r5,#0
        0x00001b02:    4c3d        =L      LDR      r4,[pc,#244] ; [0x1bf8] = 0x20000290
        0x00001b04:    71b5        .q      STRB     r5,[r6,#6]
        0x00001b06:    69e0        .i      LDR      r0,[r4,#0x1c]
        0x00001b08:    1c40        @.      ADDS     r0,r0,#1
        0x00001b0a:    61e0        .a      STR      r0,[r4,#0x1c]
        0x00001b0c:    8860        `.      LDRH     r0,[r4,#2]
        0x00001b0e:    0780        ..      LSLS     r0,r0,#30
        0x00001b10:    d55d        ].      BPL      0x1bce ; PhaseChangedRoutine + 210
        0x00001b12:    8860        `.      LDRH     r0,[r4,#2]
        0x00001b14:    4f39        9O      LDR      r7,[pc,#228] ; [0x1bfc] = 0x1fe0
        0x00001b16:    0700        ..      LSLS     r0,r0,#28
        0x00001b18:    d514        ..      BPL      0x1b44 ; PhaseChangedRoutine + 72
        0x00001b1a:    8860        `.      LDRH     r0,[r4,#2]
        0x00001b1c:    43b8        .C      BICS     r0,r0,r7
        0x00001b1e:    8060        `.      STRH     r0,[r4,#2]
        0x00001b20:    88a0        ..      LDRH     r0,[r4,#4]
        0x00001b22:    b2c0        ..      UXTB     r0,r0
        0x00001b24:    2804        .(      CMP      r0,#4
        0x00001b26:    d904        ..      BLS      0x1b32 ; PhaseChangedRoutine + 54
        0x00001b28:    8860        `.      LDRH     r0,[r4,#2]
        0x00001b2a:    2104        .!      MOVS     r1,#4
        0x00001b2c:    4308        .C      ORRS     r0,r0,r1
        0x00001b2e:    8060        `.      STRH     r0,[r4,#2]
        0x00001b30:    e04d        M.      B        0x1bce ; PhaseChangedRoutine + 210
        0x00001b32:    88a0        ..      LDRH     r0,[r4,#4]
        0x00001b34:    88a1        ..      LDRH     r1,[r4,#4]
        0x00001b36:    1c40        @.      ADDS     r0,r0,#1
        0x00001b38:    b2c0        ..      UXTB     r0,r0
        0x00001b3a:    0a09        ..      LSRS     r1,r1,#8
        0x00001b3c:    0209        ..      LSLS     r1,r1,#8
        0x00001b3e:    4301        .C      ORRS     r1,r1,r0
        0x00001b40:    80a1        ..      STRH     r1,[r4,#4]
        0x00001b42:    e044        D.      B        0x1bce ; PhaseChangedRoutine + 210
        0x00001b44:    88a0        ..      LDRH     r0,[r4,#4]
        0x00001b46:    0a00        ..      LSRS     r0,r0,#8
        0x00001b48:    0200        ..      LSLS     r0,r0,#8
        0x00001b4a:    80a0        ..      STRH     r0,[r4,#4]
        0x00001b4c:    482c        ,H      LDR      r0,[pc,#176] ; [0x1c00] = 0x40010020
        0x00001b4e:    68c1        .h      LDR      r1,[r0,#0xc]
        0x00001b50:    69a2        .i      LDR      r2,[r4,#0x18]
        0x00001b52:    0892        ..      LSRS     r2,r2,#2
        0x00001b54:    4291        .B      CMP      r1,r2
        0x00001b56:    68c1        .h      LDR      r1,[r0,#0xc]
        0x00001b58:    69a2        .i      LDR      r2,[r4,#0x18]
        0x00001b5a:    d902        ..      BLS      0x1b62 ; PhaseChangedRoutine + 102
        0x00001b5c:    0892        ..      LSRS     r2,r2,#2
        0x00001b5e:    1a89        ..      SUBS     r1,r1,r2
        0x00001b60:    e003        ..      B        0x1b6a ; PhaseChangedRoutine + 110
        0x00001b62:    4b28        (K      LDR      r3,[pc,#160] ; [0x1c04] = 0xffffff
        0x00001b64:    0892        ..      LSRS     r2,r2,#2
        0x00001b66:    1a9a        ..      SUBS     r2,r3,r2
        0x00001b68:    1889        ..      ADDS     r1,r1,r2
        0x00001b6a:    61f1        .a      STR      r1,[r6,#0x1c]
        0x00001b6c:    8861        a.      LDRH     r1,[r4,#2]
        0x00001b6e:    04c9        ..      LSLS     r1,r1,#19
        0x00001b70:    0e09        ..      LSRS     r1,r1,#24
        0x00001b72:    290c        .)      CMP      r1,#0xc
        0x00001b74:    d921        !.      BLS      0x1bba ; PhaseChangedRoutine + 190
        0x00001b76:    8861        a.      LDRH     r1,[r4,#2]
        0x00001b78:    0749        I.      LSLS     r1,r1,#29
        0x00001b7a:    d528        (.      BPL      0x1bce ; PhaseChangedRoutine + 210
        0x00001b7c:    8861        a.      LDRH     r1,[r4,#2]
        0x00001b7e:    2204        ."      MOVS     r2,#4
        0x00001b80:    4391        .C      BICS     r1,r1,r2
        0x00001b82:    8061        a.      STRH     r1,[r4,#2]
        0x00001b84:    4920         I      LDR      r1,[pc,#128] ; [0x1c08] = 0x50004240
        0x00001b86:    620d        .b      STR      r5,[r1,#0x20]
        0x00001b88:    4a20         J      LDR      r2,[pc,#128] ; [0x1c0c] = 0x40040040
        0x00001b8a:    6155        Ua      STR      r5,[r2,#0x14]
        0x00001b8c:    491c        .I      LDR      r1,[pc,#112] ; [0x1c00] = 0x40010020
        0x00001b8e:    3920         9      SUBS     r1,r1,#0x20
        0x00001b90:    680d        .h      LDR      r5,[r1,#0]
        0x00001b92:    038b        ..      LSLS     r3,r1,#14
        0x00001b94:    439d        .C      BICS     r5,r5,r3
        0x00001b96:    600d        .`      STR      r5,[r1,#0]
        0x00001b98:    6805        .h      LDR      r5,[r0,#0]
        0x00001b9a:    439d        .C      BICS     r5,r5,r3
        0x00001b9c:    6005        .`      STR      r5,[r0,#0]
        0x00001b9e:    680d        .h      LDR      r5,[r1,#0]
        0x00001ba0:    034b        K.      LSLS     r3,r1,#13
        0x00001ba2:    439d        .C      BICS     r5,r5,r3
        0x00001ba4:    600d        .`      STR      r5,[r1,#0]
        0x00001ba6:    6801        .h      LDR      r1,[r0,#0]
        0x00001ba8:    4399        .C      BICS     r1,r1,r3
        0x00001baa:    6001        .`      STR      r1,[r0,#0]
        0x00001bac:    20ff        .       MOVS     r0,#0xff
        0x00001bae:    63d0        .c      STR      r0,[r2,#0x3c]
        0x00001bb0:    6390        .c      STR      r0,[r2,#0x38]
        0x00001bb2:    2006        .       MOVS     r0,#6
        0x00001bb4:    f7fffd2d    ..-.    BL       setError ; 0x1612
        0x00001bb8:    e009        ..      B        0x1bce ; PhaseChangedRoutine + 210
        0x00001bba:    8860        `.      LDRH     r0,[r4,#2]
        0x00001bbc:    8861        a.      LDRH     r1,[r4,#2]
        0x00001bbe:    04c0        ..      LSLS     r0,r0,#19
        0x00001bc0:    0e00        ..      LSRS     r0,r0,#24
        0x00001bc2:    1c40        @.      ADDS     r0,r0,#1
        0x00001bc4:    0600        ..      LSLS     r0,r0,#24
        0x00001bc6:    0cc0        ..      LSRS     r0,r0,#19
        0x00001bc8:    43b9        .C      BICS     r1,r1,r7
        0x00001bca:    4301        .C      ORRS     r1,r1,r0
        0x00001bcc:    8061        a.      STRH     r1,[r4,#2]
        0x00001bce:    8860        `.      LDRH     r0,[r4,#2]
        0x00001bd0:    0740        @.      LSLS     r0,r0,#29
        0x00001bd2:    d504        ..      BPL      0x1bde ; PhaseChangedRoutine + 226
        0x00001bd4:    69a0        .i      LDR      r0,[r4,#0x18]
        0x00001bd6:    0041        A.      LSLS     r1,r0,#1
        0x00001bd8:    4809        .H      LDR      r0,[pc,#36] ; [0x1c00] = 0x40010020
        0x00001bda:    3820         8      SUBS     r0,r0,#0x20
        0x00001bdc:    6041        A`      STR      r1,[r0,#4]
        0x00001bde:    8860        `.      LDRH     r0,[r4,#2]
        0x00001be0:    2108        .!      MOVS     r1,#8
        0x00001be2:    4388        .C      BICS     r0,r0,r1
        0x00001be4:    8060        `.      STRH     r0,[r4,#2]
        0x00001be6:    4808        .H      LDR      r0,[pc,#32] ; [0x1c08] = 0x50004240
        0x00001be8:    3040        @0      ADDS     r0,r0,#0x40
        0x00001bea:    6a01        .j      LDR      r1,[r0,#0x20]
        0x00001bec:    2201        ."      MOVS     r2,#1
        0x00001bee:    4051        Q@      EORS     r1,r1,r2
        0x00001bf0:    6201        .b      STR      r1,[r0,#0x20]
        0x00001bf2:    bdf8        ..      POP      {r3-r7,pc}
    $d
        0x00001bf4:    20000004    ...     DCD    536870916
        0x00001bf8:    20000290    ...     DCD    536871568
        0x00001bfc:    00001fe0    ....    DCD    8160
        0x00001c00:    40010020     ..@    DCD    1073807392
        0x00001c04:    00ffffff    ....    DCD    16777215
        0x00001c08:    50004240    @B.P    DCD    1342194240
        0x00001c0c:    40040040    @..@    DCD    1074004032
    $t
    i.__ARM_clz
    __ARM_clz
        0x00001c10:    2120         !      MOVS     r1,#0x20
        0x00001c12:    0c02        ..      LSRS     r2,r0,#16
        0x00001c14:    d001        ..      BEQ      0x1c1a ; __ARM_clz + 10
        0x00001c16:    2110        .!      MOVS     r1,#0x10
        0x00001c18:    4610        .F      MOV      r0,r2
        0x00001c1a:    0a02        ..      LSRS     r2,r0,#8
        0x00001c1c:    d001        ..      BEQ      0x1c22 ; __ARM_clz + 18
        0x00001c1e:    4610        .F      MOV      r0,r2
        0x00001c20:    3908        .9      SUBS     r1,r1,#8
        0x00001c22:    0902        ..      LSRS     r2,r0,#4
        0x00001c24:    d001        ..      BEQ      0x1c2a ; __ARM_clz + 26
        0x00001c26:    4610        .F      MOV      r0,r2
        0x00001c28:    1f09        ..      SUBS     r1,r1,#4
        0x00001c2a:    0882        ..      LSRS     r2,r0,#2
        0x00001c2c:    d001        ..      BEQ      0x1c32 ; __ARM_clz + 34
        0x00001c2e:    4610        .F      MOV      r0,r2
        0x00001c30:    1e89        ..      SUBS     r1,r1,#2
        0x00001c32:    0842        B.      LSRS     r2,r0,#1
        0x00001c34:    d001        ..      BEQ      0x1c3a ; __ARM_clz + 42
        0x00001c36:    1e88        ..      SUBS     r0,r1,#2
        0x00001c38:    4770        pG      BX       lr
        0x00001c3a:    1a08        ..      SUBS     r0,r1,r0
        0x00001c3c:    4770        pG      BX       lr
    i.__ARM_common_switch8
    __ARM_common_switch8
        0x00001c3e:    b430        0.      PUSH     {r4,r5}
        0x00001c40:    4674        tF      MOV      r4,lr
        0x00001c42:    1e64        d.      SUBS     r4,r4,#1
        0x00001c44:    7825        %x      LDRB     r5,[r4,#0]
        0x00001c46:    1c64        d.      ADDS     r4,r4,#1
        0x00001c48:    42ab        .B      CMP      r3,r5
        0x00001c4a:    d200        ..      BCS      0x1c4e ; __ARM_common_switch8 + 16
        0x00001c4c:    461d        .F      MOV      r5,r3
        0x00001c4e:    5d63        c]      LDRB     r3,[r4,r5]
        0x00001c50:    005b        [.      LSLS     r3,r3,#1
        0x00001c52:    18e3        ..      ADDS     r3,r4,r3
        0x00001c54:    bc30        0.      POP      {r4,r5}
        0x00001c56:    4718        .G      BX       r3
    i.__scatterload_copy
    __scatterload_copy
        0x00001c58:    e002        ..      B        0x1c60 ; __scatterload_copy + 8
        0x00001c5a:    c808        ..      LDM      r0!,{r3}
        0x00001c5c:    1f12        ..      SUBS     r2,r2,#4
        0x00001c5e:    c108        ..      STM      r1!,{r3}
        0x00001c60:    2a00        .*      CMP      r2,#0
        0x00001c62:    d1fa        ..      BNE      0x1c5a ; __scatterload_copy + 2
        0x00001c64:    4770        pG      BX       lr
    i.__scatterload_null
    __scatterload_null
        0x00001c66:    4770        pG      BX       lr
    i.__scatterload_zeroinit
    __scatterload_zeroinit
        0x00001c68:    2000        .       MOVS     r0,#0
        0x00001c6a:    e001        ..      B        0x1c70 ; __scatterload_zeroinit + 8
        0x00001c6c:    c101        ..      STM      r1!,{r0}
        0x00001c6e:    1f12        ..      SUBS     r2,r2,#4
        0x00001c70:    2a00        .*      CMP      r2,#0
        0x00001c72:    d1fb        ..      BNE      0x1c6c ; __scatterload_zeroinit + 4
        0x00001c74:    4770        pG      BX       lr
        0x00001c76:    0000        ..      MOVS     r0,r0
    i.setPhaseManually
    setPhaseManually
        0x00001c78:    4a09        .J      LDR      r2,[pc,#36] ; [0x1ca0] = 0x40040000
        0x00001c7a:    6290        .b      STR      r0,[r2,#0x28]
        0x00001c7c:    6310        .c      STR      r0,[r2,#0x30]
        0x00001c7e:    6390        .c      STR      r0,[r2,#0x38]
        0x00001c80:    4808        .H      LDR      r0,[pc,#32] ; [0x1ca4] = 0x20000290
        0x00001c82:    8800        ..      LDRH     r0,[r0,#0]
        0x00001c84:    0782        ..      LSLS     r2,r0,#30
        0x00001c86:    0088        ..      LSLS     r0,r1,#2
        0x00001c88:    2a00        .*      CMP      r2,#0
        0x00001c8a:    db01        ..      BLT      0x1c90 ; setPhaseManually + 24
        0x00001c8c:    4906        .I      LDR      r1,[pc,#24] ; [0x1ca8] = 0x1cb0
        0x00001c8e:    e001        ..      B        0x1c94 ; setPhaseManually + 28
        0x00001c90:    4905        .I      LDR      r1,[pc,#20] ; [0x1ca8] = 0x1cb0
        0x00001c92:    3118        .1      ADDS     r1,r1,#0x18
        0x00001c94:    5808        .X      LDR      r0,[r1,r0]
        0x00001c96:    4902        .I      LDR      r1,[pc,#8] ; [0x1ca0] = 0x40040000
        0x00001c98:    3140        @1      ADDS     r1,r1,#0x40
        0x00001c9a:    6388        .c      STR      r0,[r1,#0x38]
        0x00001c9c:    4770        pG      BX       lr
    $d
        0x00001c9e:    0000        ..      DCW    0
        0x00001ca0:    40040000    ...@    DCD    1074003968
        0x00001ca4:    20000290    ...     DCD    536871568
        0x00001ca8:    00001cb0    ....    DCD    7344
    $d.realdata
    .constdata
    unLocatePhaseSequencyTable
        0x00001cac:    01020100    ....    DCD    16908544
    PHASE_TAB_CLOCKWISE
        0x00001cb0:    40000239    9..@    DCD    1073742393
        0x00001cb4:    700002ad    ...p    DCD    1879048877
        0x00001cb8:    50000827    '..P    DCD    1342179367
        0x00001cbc:    400008b6    ...@    DCD    1073744054
        0x00001cc0:    7000201e    . .p    DCD    1879056414
        0x00001cc4:    5000209b    . .P    DCD    1342185627
    PHASE_TAB_ANTICLOCKWISE
        0x00001cc8:    400002b9    ...@    DCD    1073742521
        0x00001ccc:    5000201b    . .P    DCD    1342185499
        0x00001cd0:    7000209e    . .p    DCD    1879056542
        0x00001cd4:    40000836    6..@    DCD    1073743926
        0x00001cd8:    500008a7    ...P    DCD    1342179495
        0x00001cdc:    7000022d    -..p    DCD    1879048749
    .constdata
    unLED_BLINK_PATTERN_TABLE
        0x00001ce0:    00000190    ....    DCD    400
        0x00001ce4:    00000190    ....    DCD    400
        0x00001ce8:    00000320     ...    DCD    800
        0x00001cec:    00000320     ...    DCD    800
        0x00001cf0:    00000320     ...    DCD    800
        0x00001cf4:    00000320     ...    DCD    800
        0x00001cf8:    000004b0    ....    DCD    1200
        0x00001cfc:    00000000    ....    DCD    0
    Region$$Table$$Base
        0x00001d00:    00001d20     ...    DCD    7456
        0x00001d04:    20000000    ...     DCD    536870912
        0x00001d08:    00000290    ....    DCD    656
        0x00001d0c:    00001c58    X...    DCD    7256
        0x00001d10:    00001fb0    ....    DCD    8112
        0x00001d14:    20000290    ...     DCD    536871568
        0x00001d18:    00000228    (...    DCD    552
        0x00001d1c:    00001c68    h...    DCD    7272
    Region$$Table$$Limit

** Section #2 'ER_RW' (SHT_PROGBITS) [SHF_ALLOC + SHF_WRITE]
    Size   : 656 bytes (alignment 4)
    Address: 0x20000000


** Section #3 'ER_ZI' (SHT_NOBITS) [SHF_ALLOC + SHF_WRITE]
    Size   : 552 bytes (alignment 8)
    Address: 0x20000290


** Section #4 '.debug_abbrev' (SHT_PROGBITS)
    Size   : 1476 bytes


** Section #5 '.debug_frame' (SHT_PROGBITS)
    Size   : 3288 bytes


** Section #6 '.debug_info' (SHT_PROGBITS)
    Size   : 38252 bytes


** Section #7 '.debug_line' (SHT_PROGBITS)
    Size   : 9544 bytes


** Section #8 '.debug_loc' (SHT_PROGBITS)
    Size   : 6832 bytes


** Section #9 '.debug_macinfo' (SHT_PROGBITS)
    Size   : 167248 bytes


** Section #10 '.debug_pubnames' (SHT_PROGBITS)
    Size   : 3467 bytes


** Section #11 '.symtab' (SHT_SYMTAB)
    Size   : 6960 bytes (alignment 4)
    String table #12 '.strtab'
    Last local symbol no. 205


** Section #12 '.strtab' (SHT_STRTAB)
    Size   : 5792 bytes


** Section #13 '.note' (SHT_NOTE)
    Size   : 28 bytes (alignment 4)


** Section #14 '.comment' (SHT_PROGBITS)
    Size   : 22504 bytes


** Section #15 '.shstrtab' (SHT_STRTAB)
    Size   : 156 bytes


